 ConEmu

 Timestamp is 5a7989b5 (Tue Feb  6 13:55:49 2018)

 Preferred load address is 10000000

 Start         Length     Name                   Class
 0001:00000000 00000010H .text$di                CODE
 0001:00000010 00027fb5H .text$mn                CODE
 0001:00027fc5 000004bcH .text$x                 CODE
 0001:00028481 0000000aH .text$yd                CODE
 0002:00000000 00000334H .idata$5                DATA
 0002:00000334 00000004H .00cfg                  DATA
 0002:00000338 00000004H .CRT$XCA                DATA
 0002:0000033c 00000004H .CRT$XCU                DATA
 0002:00000340 00000004H .CRT$XCZ                DATA
 0002:00000344 00000004H .CRT$XIA                DATA
 0002:00000348 00000010H .CRT$XIC                DATA
 0002:00000358 00000004H .CRT$XIZ                DATA
 0002:0000035c 00000004H .CRT$XLA                DATA
 0002:00000360 00000004H .CRT$XLZ                DATA
 0002:00000364 00000004H .CRT$XPA                DATA
 0002:00000368 00000008H .CRT$XPX                DATA
 0002:00000370 00000004H .CRT$XPXA               DATA
 0002:00000374 00000004H .CRT$XPZ                DATA
 0002:00000378 00000004H .CRT$XTA                DATA
 0002:0000037c 00000004H .CRT$XTZ                DATA
 0002:00000380 00000000H .gfids$x                DATA
 0002:00000380 00000000H .gfids$y                DATA
 0002:00000380 000093c8H .rdata                  DATA
 0002:00009748 00000018H .rdata$T                DATA
 0002:00009760 000002f0H .rdata$r                DATA
 0002:00009a50 0000007cH .rdata$sxdata           DATA
 0002:00009acc 000003b0H .rdata$zzzdbg           DATA
 0002:00009e7c 00000004H .rtc$IAA                DATA
 0002:00009e80 00000004H .rtc$IZZ                DATA
 0002:00009e84 00000004H .rtc$TAA                DATA
 0002:00009e88 00000004H .rtc$TZZ                DATA
 0002:00009e8c 00000004H .tls                    DATA
 0002:00009e90 00000004H .tls$                   DATA
 0002:00009e94 00000004H .tls$ZZZ                DATA
 0002:00009e98 00000988H .xdata$x                DATA
 0002:0000a820 000002e0H .edata                  DATA
 0002:0000ab00 00000064H .idata$2                DATA
 0002:0000ab64 00000014H .idata$3                DATA
 0002:0000ab78 00000334H .idata$4                DATA
 0002:0000aeac 00000e8eH .idata$6                DATA
 0003:00000000 00000988H .data                   DATA
 0003:00000988 00000170H .data$r                 DATA
 0003:00000af8 0000a220H .bss                    DATA
 0004:00000000 000000a0H .rsrc$01                DATA
 0004:000000a0 00000488H .rsrc$02                DATA

  Address         Publics by Value              Rva+Base       Lib:Object

 0000:00000000       ___enclave_config          00000000     <absolute>
 0000:00000000       __except_list              00000000     <absolute>
 0000:00000000       ___guard_fids_count        00000000     <absolute>
 0000:00000000       ___guard_longjmp_count     00000000     <absolute>
 0000:00000000       ___dynamic_value_reloc_table 00000000     <absolute>
 0000:00000000       ___guard_longjmp_table     00000000     <absolute>
 0000:00000000       ___hybrid_code_map         00000000     <absolute>
 0000:00000000       ___guard_iat_table         00000000     <absolute>
 0000:00000000       ___guard_iat_count         00000000     <absolute>
 0000:00000000       ___hybrid_auxiliary_iat    00000000     <absolute>
 0000:00000000       ___guard_fids_table        00000000     <absolute>
 0000:00000000       ___hybrid_code_map_count   00000000     <absolute>
 0000:0000001f       ___safe_se_handler_count   0000001f     <absolute>
 0000:0000002c       __tls_array                0000002c     <absolute>
 0000:00000100       ___guard_flags             00000100     <absolute>
 0000:00000000       ___ImageBase               10000000     <linker-defined>
 0001:00000010       ??$swprintf_c@$0EA@@@YAHAAY0EA@_WPB_WZZ 10001010 f i ConEmuInjects.obj
 0001:00000026       ??$swprintf_c@$0IA@@@YAHAAY0IA@_WPB_WZZ 10001026 f i ConEmuInjects.obj
 0001:0000003f       ??$swprintf_c@$0PP@@@YAHAAY0PP@_WPB_WZZ 1000103f f i ConEmuInjects.obj
 0001:00000058       ?ShutdownHooks@@YAXXZ      10001058 f   ConEmuInjects.obj
 0001:0000018f       ?StartupHooks@@YA_NPAUHINSTANCE__@@@Z 1000118f f   ConEmuInjects.obj
 0001:000004d5       ?StringCchCopyW@@YGJPA_WIPB_W@Z 100014d5 f i ConEmuInjects.obj
 0001:0000053f       ?StringCchVPrintfW@@YGJPA_WIPB_WPAD@Z 1000153f f i ConEmuInjects.obj
 0001:00000596       ___local_stdio_printf_options 10001596 f i ConEmuInjects.obj
 0001:0000059c       __vsnwprintf_l             1000159c f i ConEmuInjects.obj
 0001:000005ce       _ExitFARW@0                100015ce f   ConEmuPlugin.obj
 0001:0000060e       _ProcessEditorEventW@8     1000160e f   ConEmuPlugin.obj
 0001:0000060e       ?ProcessEditorEvent@@YGHHPAX@Z 1000160e f   ConEmuPlugin.obj
 0001:00000626       _ProcessSynchroEventW@8    10001626 f   ConEmuPlugin.obj
 0001:0000063f       ?ProcessViewerEvent@@YGHHPAX@Z 1000163f f   ConEmuPlugin.obj
 0001:0000063f       _ProcessViewerEventW@8     1000163f f   ConEmuPlugin.obj
 0001:00000657       ?ProcessSynchroEventW3@@YGHPAX@Z 10001657 f   ConEmuPlugin.obj
 0001:00000667       ?ProcessEditorEventW3@@YGHPAX@Z 10001667 f   ConEmuPlugin.obj
 0001:00000677       ?ProcessViewerEventW3@@YGHPAX@Z 10001677 f   ConEmuPlugin.obj
 0001:00000687       ?ExitFARW3@@YGXPAX@Z       10001687 f   ConEmuPlugin.obj
 0001:000006c9       ?ActivateConsole@@YGHXZ    100016c9 f   ConEmuPlugin.obj
 0001:0000087c       ?ExitFAR@@YGXXZ            1000187c f   ConEmuPlugin.obj
 0001:000008bc       ?GetFarHWND2@@YGPAUHWND__@@H@Z 100018bc f   ConEmuPlugin.obj
 0001:00000922       ?GetFarHWND@@YGPAUHWND__@@XZ 10001922 f   ConEmuPlugin.obj
 0001:0000092a       ?GetFarVersion@@YGXPAUFarVersion@@@Z 1000192a f   ConEmuPlugin.obj
 0001:00000944       ?GetMinFarVersion@@YGHXZ   10001944 f   ConEmuPlugin.obj
 0001:00000969       ?GetPluginInfo@@YGXPAX@Z   10001969 f   ConEmuPlugin.obj
 0001:000009a7       ?GetPluginInfoW@@YGXPAX@Z  100019a7 f   ConEmuPlugin.obj
 0001:000009b7       ?IsConsoleActive@@YGHXZ    100019b7 f   ConEmuPlugin.obj
 0001:000009f6       ?IsTerminalMode@@YGHXZ     100019f6 f   ConEmuPlugin.obj
 0001:000009fc       ?OpenPlugin@@YGPAXHH@Z     100019fc f   ConEmuPlugin.obj
 0001:00000a17       ?OpenW@@YGPAXPBX@Z         10001a17 f   ConEmuPlugin.obj
 0001:00000a27       ?ProcessEditorInput@@YGHPBU_INPUT_RECORD@@@Z 10001a27 f   ConEmuPlugin.obj
 0001:00000a3f       ?RegisterBackground@@YGHPAURegisterBackgroundArg@@@Z 10001a3f f   ConEmuPlugin.obj
 0001:00000aae       ?RegisterPanelView@@YGHPAUPanelViewInit@@@Z 10001aae f   ConEmuPlugin.obj
 0001:00000bdb       ?SetStartupInfo@@YGXPAX@Z  10001bdb f   ConEmuPlugin.obj
 0001:00000c2b       ?SetupExportsFar3@@YAXXZ   10001c2b f   ConEmuPlugin.obj
 0001:00000c3e       ?SyncExecute@@YGHPAUHINSTANCE__@@P6GXJ@ZJ@Z 10001c3e f   ConEmuPlugin.obj
 0001:00000c7e       _DllMain@12                10001c7e f   ConEmuPlugin.obj
 0001:00000ca5       _GetMinFarVersionW@0       10001ca5 f   ConEmuPlugin.obj
 0001:00000cab       _OpenPluginW@8             10001cab f   ConEmuPlugin.obj
 0001:00000cd8       _ProcessEditorInputW@4     10001cd8 f   ConEmuPlugin.obj
 0001:00000ce8       _SetStartupInfoW@4         10001ce8 f   ConEmuPlugin.obj
 0001:00000d0a       ??0CPluginW1900@@QAE@XZ    10001d0a f   ConEmuPlugin1900.obj
 0001:00000e95       ??_GCPluginW1900@@UAEPAXI@Z 10001e95 f i ConEmuPlugin1900.obj
 0001:00000e95       ??_ECPluginW1900@@UAEPAXI@Z 10001e95 f i ConEmuPlugin1900.obj
 0001:00001217       ?CheckPanelExist@CPluginW1900@@UAE_NXZ 10002217 f   ConEmuPlugin1900.obj
 0001:0000123a       ?Color2BgIndex@Far3Color@@SAXKHAAGPBK@Z 1000223a f i ConEmuPlugin1900.obj
 0001:0000130f       ?Color2FgIndex@Far3Color@@SAXKAAGPBK@Z 1000230f f i ConEmuPlugin1900.obj
 0001:000013c7       ?ExecuteSynchroApi@CPluginW1900@@UAE_NXZ 100023c7 f   ConEmuPlugin1900.obj
 0001:000013ea       ?ExitFar@CPluginW1900@@UAEXXZ 100023ea f   ConEmuPlugin1900.obj
 0001:00001466       ?FarColor_3_2@@YAEABUFarColor@@_N@Z 10002466 f i ConEmuPlugin1900.obj
 0001:00001513       ?GetActiveWindowType@CPluginW1900@@UAEHXZ 10002513 f   ConEmuPlugin1900.obj
 0001:0000158c       ?GetEditorModifiedState@CPluginW1900@@UAEKXZ 1000258c f   ConEmuPlugin1900.obj
 0001:000015ca       ?GetFarRect@CPluginW1900@@UAE_NAAU_SMALL_RECT@@@Z 100025ca f   ConEmuPlugin1900.obj
 0001:00001659       ?GetMacroArea@CPluginW1900@@UAEHXZ 10002659 f   ConEmuPlugin1900.obj
 0001:0000166d       ?GetMsg@CPluginW1900@@UAEPB_WHPA_WI@Z 1000266d f   ConEmuPlugin1900.obj
 0001:000016b3       ?GetPanelDir@CPluginW1900@@UAEPA_WKPA_WH@Z 100026b3 f   ConEmuPlugin1900.obj
 0001:000017d9       ?GetPanelInfo@CPluginW1900@@UAE_NKPAUCEPanelInfo@@@Z 100027d9 f   ConEmuPlugin1900.obj
 0001:00001a42       ?GetPanelItemInfo@CPluginW1900@@UAE_NABUCEPanelInfo@@_NHAAU_WIN32_FIND_DATAW@@PAPA_W@Z 10002a42 f   ConEmuPlugin1900.obj
 0001:00001bc9       ?GetPluginInfoPtr@CPluginW1900@@UAEXPAX@Z 10002bc9 f   ConEmuPlugin1900.obj
 0001:00001c12       ?GetStdIndex@Far3Color@@SAHKPBK@Z 10002c12 f i ConEmuPlugin1900.obj
 0001:00001c37       ?GetWindowCount@CPluginW1900@@UAEHXZ 10002c37 f   ConEmuPlugin1900.obj
 0001:00001c58       ?GuiMacroDlg@CPluginW1900@@UAEXXZ 10002c58 f   ConEmuPlugin1900.obj
 0001:00001c5d       ?InputBox@CPluginW1900@@UAE_NPB_W000AAPA_W@Z 10002c5d f   ConEmuPlugin1900.obj
 0001:00001ce9       ?IsMacroActive@CPluginW1900@@UAE_NXZ 10002ce9 f   ConEmuPlugin1900.obj
 0001:00001d12       ?LoadFarColors@CPluginW1900@@UAEXAAY0BAA@E@Z 10002d12 f   ConEmuPlugin1900.obj
 0001:00001e80       ?LoadFarSettings@CPluginW1900@@UAEXPAUCEFarInterfaceSettings@@PAUCEFarPanelSettings@@@Z 10002e80 f   ConEmuPlugin1900.obj
 0001:00001f90       ?Open@CPluginW1900@@UAEPAXPBX@Z 10002f90 f   ConEmuPlugin1900.obj
 0001:0000205c       ?OpenEditor@CPluginW1900@@UAE_NPB_W_N11HH@Z 1000305c f   ConEmuPlugin1900.obj
 0001:000020fd       ?PanelControlApi@CPluginW1900@@UAEHPAXHH0@Z 100030fd f   ConEmuPlugin1900.obj
 0001:0000211a       ?PostMacroApi@CPluginW1900@@UAEXPB_WPAU_INPUT_RECORD@@_N@Z 1000311a f   ConEmuPlugin1900.obj
 0001:00002668       ?ProcessEditorInputPtr@CPluginW1900@@UAEHPBX@Z 10003668 f   ConEmuPlugin1900.obj
 0001:00002686       ?ProcessViewerEventPtr@CPluginW1900@@UAEHPAX@Z 10003686 f   ConEmuPlugin1900.obj
 0001:00002686       ?ProcessViewerEventPtr@CPluginW2800@@UAEHPAX@Z 10003686 f   ConEmuPlugin2800.obj
 0001:0000269a       ?RedrawAll@CPluginW1900@@UAEXXZ 1000369a f   ConEmuPlugin1900.obj
 0001:000026bb       ?SetStartupInfoPtr@CPluginW1900@@UAEXPAX@Z 100036bb f   ConEmuPlugin1900.obj
 0001:000027d4       ?SetWindow@CPluginW1900@@UAEXH@Z 100037d4 f   ConEmuPlugin1900.obj
 0001:0000280f       ?ShowMessage@CPluginW1900@@UAEHPB_WH_N@Z 1000380f f   ConEmuPlugin1900.obj
 0001:00002876       ?ShowPluginMenu@CPluginW1900@@UAEHPAUConEmuPluginMenuItem@@HH@Z 10003876 f   ConEmuPlugin1900.obj
 0001:000029cf       ?ShowUserScreen@CPluginW1900@@UAEX_N@Z 100039cf f   ConEmuPlugin1900.obj
 0001:000029f4       ?UpdateConEmuTabsApi@CPluginW1900@@UAE_NH@Z 100039f4 f   ConEmuPlugin1900.obj
 0001:00002e4b       ?StopWaitEndSynchro@CPluginW1900@@UAEXXZ 10003e4b f   ConEmuPlugin1900.obj
 0001:00002e4b       ?PlugServerInit@@YAXXZ     10003e4b f   PluginSrv.obj
 0001:00002e4b       @_guard_check_icall_nop@4  10003e4b f   LIBCMT:guard_support.obj
 0001:00002e4b       ?WaitEndSynchro@CPluginW2800@@UAEXXZ 10003e4b f   ConEmuPlugin2800.obj
 0001:00002e4b       ?ShutdownPluginStep@CPluginBase@@SAXPB_WHHHH@Z 10003e4b f   ConEmuPluginBase.obj
 0001:00002e4b       ?StopWaitEndSynchro@CPluginAnsi@@UAEXXZ 10003e4b f   ConEmuPluginA.obj
 0001:00002e4b       ?WaitEndSynchro@CPluginW1900@@UAEXXZ 10003e4b f   ConEmuPlugin1900.obj
 0001:00002e4b       ?StopWaitEndSynchro@CPluginW2800@@UAEXXZ 10003e4b f   ConEmuPlugin2800.obj
 0001:00002e4b       ?WaitEndSynchro@CPluginAnsi@@UAEXXZ 10003e4b f   ConEmuPluginA.obj
 0001:00002e4c       ??0CPluginW2800@@QAE@XZ    10003e4c f   ConEmuPlugin2800.obj
 0001:00002fd7       ??1?$MArray@UWindowInfo@@@@QAE@XZ 10003fd7 f i ConEmuPlugin2800.obj
 0001:0000300d       ??_GCPluginW2800@@UAEPAXI@Z 1000400d f i ConEmuPlugin2800.obj
 0001:0000300d       ??_ECPluginW2800@@UAEPAXI@Z 1000400d f i ConEmuPlugin2800.obj
 0001:000033a5       ?CheckPanelExist@CPluginW2800@@UAE_NXZ 100043a5 f   ConEmuPlugin2800.obj
 0001:000033c8       ?ExecuteSynchroApi@CPluginW2800@@UAE_NXZ 100043c8 f   ConEmuPlugin2800.obj
 0001:000033eb       ?ExitFar@CPluginW2800@@UAEXXZ 100043eb f   ConEmuPlugin2800.obj
 0001:00003486       ?GetActiveWindowType@CPluginW2800@@UAEHXZ 10004486 f   ConEmuPlugin2800.obj
 0001:00003505       ?GetEditorModifiedState@CPluginW2800@@UAEKXZ 10004505 f   ConEmuPlugin2800.obj
 0001:00003543       ?GetFarRect@CPluginW2800@@UAE_NAAU_SMALL_RECT@@@Z 10004543 f   ConEmuPlugin2800.obj
 0001:000035d5       ?GetMacroArea@CPluginW2800@@UAEHXZ 100045d5 f   ConEmuPlugin2800.obj
 0001:000035e9       ?GetMsg@CPluginW2800@@UAEPB_WHPA_WI@Z 100045e9 f   ConEmuPlugin2800.obj
 0001:0000362f       ?GetPanelDir@CPluginW2800@@UAEPA_WKPA_WH@Z 1000462f f   ConEmuPlugin2800.obj
 0001:00003755       ?GetPanelInfo@CPluginW2800@@UAE_NKPAUCEPanelInfo@@@Z 10004755 f   ConEmuPlugin2800.obj
 0001:000039be       ?GetPanelItemInfo@CPluginW2800@@UAE_NABUCEPanelInfo@@_NHAAU_WIN32_FIND_DATAW@@PAPA_W@Z 100049be f   ConEmuPlugin2800.obj
 0001:00003b4e       ?GetPluginInfoPtr@CPluginW2800@@UAEXPAX@Z 10004b4e f   ConEmuPlugin2800.obj
 0001:00003b97       ?GetWindowCount@CPluginW2800@@UAEHXZ 10004b97 f   ConEmuPlugin2800.obj
 0001:00003bb8       ?GetWindowTypeName@CPluginW2800@@UAEPB_WH@Z 10004bb8 f   ConEmuPlugin2800.obj
 0001:00003bb8       ?GetWindowTypeName@CPluginAnsi@@UAEPB_WH@Z 10004bb8 f   ConEmuPluginA.obj
 0001:00003bb8       ?GetWindowTypeName@CPluginW995@@UAEPB_WH@Z 10004bb8 f   ConEmuPlugin995.obj
 0001:00003bb8       ?GetWindowTypeName@CPluginW1900@@UAEPB_WH@Z 10004bb8 f   ConEmuPlugin1900.obj
 0001:00003c0f       ?GuiMacroDlg@CPluginW2800@@UAEXXZ 10004c0f f   ConEmuPlugin2800.obj
 0001:00003c14       ?InputBox@CPluginW2800@@UAE_NPB_W000AAPA_W@Z 10004c14 f   ConEmuPlugin2800.obj
 0001:00003ca0       ?IsMacroActive@CPluginW2800@@UAE_NXZ 10004ca0 f   ConEmuPlugin2800.obj
 0001:00003cc9       ?LoadFarColors@CPluginW2800@@UAEXAAY0BAA@E@Z 10004cc9 f   ConEmuPlugin2800.obj
 0001:00003e37       ?LoadFarSettings@CPluginW2800@@UAEXPAUCEFarInterfaceSettings@@PAUCEFarPanelSettings@@@Z 10004e37 f   ConEmuPlugin2800.obj
 0001:00003f42       ?Open@CPluginW2800@@UAEPAXPBX@Z 10004f42 f   ConEmuPlugin2800.obj
 0001:00004064       ?OpenEditor@CPluginW2800@@UAE_NPB_W_N11HH@Z 10005064 f   ConEmuPlugin2800.obj
 0001:00004105       ?PanelControlApi@CPluginW2800@@UAEHPAXHH0@Z 10005105 f   ConEmuPlugin2800.obj
 0001:00004122       ?PostMacroApi@CPluginW2800@@UAEXPB_WPAU_INPUT_RECORD@@_N@Z 10005122 f   ConEmuPlugin2800.obj
 0001:000043e8       ?ProcessEditorEventPtr@CPluginW1900@@UAEHPAX@Z 100053e8 f   ConEmuPlugin1900.obj
 0001:000043e8       ?ProcessEditorEventPtr@CPluginW2800@@UAEHPAX@Z 100053e8 f   ConEmuPlugin2800.obj
 0001:000043fc       ?ProcessEditorInputPtr@CPluginW2800@@UAEHPBX@Z 100053fc f   ConEmuPlugin2800.obj
 0001:0000441a       ?ProcessSynchroEventPtr@CPluginW2800@@UAEHPAX@Z 1000541a f   ConEmuPlugin2800.obj
 0001:0000441a       ?ProcessSynchroEventPtr@CPluginW1900@@UAEHPAX@Z 1000541a f   ConEmuPlugin1900.obj
 0001:00004436       ?RedrawAll@CPluginW2800@@UAEXXZ 10005436 f   ConEmuPlugin2800.obj
 0001:00004457       ?SetStartupInfoPtr@CPluginW2800@@UAEXPAX@Z 10005457 f   ConEmuPlugin2800.obj
 0001:00004570       ?SetWindow@CPluginW2800@@UAEXH@Z 10005570 f   ConEmuPlugin2800.obj
 0001:00004640       ?ShowMessage@CPluginW2800@@UAEHPB_WH_N@Z 10005640 f   ConEmuPlugin2800.obj
 0001:000046a7       ?ShowPluginMenu@CPluginW2800@@UAEHPAUConEmuPluginMenuItem@@HH@Z 100056a7 f   ConEmuPlugin2800.obj
 0001:00004800       ?ShowUserScreen@CPluginW2800@@UAEX_N@Z 10005800 f   ConEmuPlugin2800.obj
 0001:00004825       ?UpdateConEmuTabsApi@CPluginW2800@@UAE_NH@Z 10005825 f   ConEmuPlugin2800.obj
 0001:00004e08       ?addsize@?$MArray@UWindowInfo@@@@QAEXH@Z 10005e08 f i ConEmuPlugin2800.obj
 0001:00004ea9       ?clear@?$MArray@UWindowInfo@@@@QAEXXZ 10005ea9 f i ConEmuPlugin2800.obj
 0001:00004ed5       ?erase@?$MArray@UWindowInfo@@@@QAEXH@Z 10005ed5 f i ConEmuPlugin2800.obj
 0001:00004f28       ?insert@?$MArray@UWindowInfo@@@@QAEXHABUWindowInfo@@@Z 10005f28 f i ConEmuPlugin2800.obj
 0001:00004fa3       ?push_back@?$MArray@UWindowInfo@@@@QAEHABUWindowInfo@@@Z 10005fa3 f i ConEmuPlugin2800.obj
 0001:00004ff7       _GetGlobalInfoW@4          10005ff7 f   ConEmuPlugin2800.obj
 0001:0000508c       ??0CPluginW995@@QAE@XZ     1000608c f   ConEmuPlugin995.obj
 0001:00005210       ??_GCPluginW995@@UAEPAXI@Z 10006210 f i ConEmuPlugin995.obj
 0001:00005210       ??_ECPluginW995@@UAEPAXI@Z 10006210 f i ConEmuPlugin995.obj
 0001:00005569       ?CheckPanelExist@CPluginW995@@UAE_NXZ 10006569 f   ConEmuPlugin995.obj
 0001:0000558c       ?ExecuteSynchroApi@CPluginW995@@UAE_NXZ 1000658c f   ConEmuPlugin995.obj
 0001:000055ab       ?ExitFar@CPluginW995@@UAEXXZ 100065ab f   ConEmuPlugin995.obj
 0001:00005627       ?GetActiveWindowType@CPluginW995@@UAEHXZ 10006627 f   ConEmuPlugin995.obj
 0001:000056c7       ?GetEditorModifiedState@CPluginW995@@UAEKXZ 100066c7 f   ConEmuPlugin995.obj
 0001:00005701       ?GetFarRect@CPluginW995@@UAE_NAAU_SMALL_RECT@@@Z 10006701 f   ConEmuPlugin995.obj
 0001:00005744       ?GetMacroArea@CPluginW995@@UAEHXZ 10006744 f   ConEmuPlugin995.obj
 0001:0000577e       ?GetMsg@CPluginW995@@UAEPB_WHPA_WI@Z 1000677e f   ConEmuPlugin995.obj
 0001:000057c2       ?GetPanelDir@CPluginW995@@UAEPA_WKPA_WH@Z 100067c2 f   ConEmuPlugin995.obj
 0001:000058a9       ?GetPanelInfo@CPluginW995@@UAE_NKPAUCEPanelInfo@@@Z 100068a9 f   ConEmuPlugin995.obj
 0001:00005a95       ?GetPanelItemInfo@CPluginW995@@UAE_NABUCEPanelInfo@@_NHAAU_WIN32_FIND_DATAW@@PAPA_W@Z 10006a95 f   ConEmuPlugin995.obj
 0001:00005c05       ?GetPluginInfoPtr@CPluginW995@@UAEXPAX@Z 10006c05 f   ConEmuPlugin995.obj
 0001:00005c5e       ?GetWindowCount@CPluginW995@@UAEHXZ 10006c5e f   ConEmuPlugin995.obj
 0001:00005c7b       ?GuiMacroDlg@CPluginW995@@UAEXXZ 10006c7b f   ConEmuPlugin995.obj
 0001:00005c80       ?InputBox@CPluginW995@@UAE_NPB_W000AAPA_W@Z 10006c80 f   ConEmuPlugin995.obj
 0001:00005d00       ?IsMacroActive@CPluginW995@@UAE_NXZ 10006d00 f   ConEmuPlugin995.obj
 0001:00005d50       ?LoadFarColors@CPluginW995@@UAEXAAY0BAA@E@Z 10006d50 f   ConEmuPlugin995.obj
 0001:00005e09       ?LoadFarSettings@CPluginW995@@UAEXPAUCEFarInterfaceSettings@@PAUCEFarPanelSettings@@@Z 10006e09 f   ConEmuPlugin995.obj
 0001:00005e40       ?Open@CPluginW995@@UAEPAXPBX@Z 10006e40 f i ConEmuPlugin995.obj
 0001:00005e40       ?Open@CPluginAnsi@@UAEPAXPBX@Z 10006e40 f i ConEmuPluginA.obj
 0001:00005e49       ?OpenEditor@CPluginW995@@UAE_NPB_W_N11HH@Z 10006e49 f   ConEmuPlugin995.obj
 0001:00005ee2       ?PanelControlApi@CPluginW995@@UAEHPAXHH0@Z 10006ee2 f   ConEmuPlugin995.obj
 0001:00005eff       ?PostMacroApi@CPluginW995@@UAEXPB_WPAU_INPUT_RECORD@@_N@Z 10006eff f   ConEmuPlugin995.obj
 0001:00005fac       ?ProcessEditorInputPtr@CPluginW995@@UAEHPBX@Z 10006fac f   ConEmuPlugin995.obj
 0001:00005fc6       ?ProcessSynchroEventPtr@CPluginAnsi@@UAEHPAX@Z 10006fc6 f i ConEmuPluginA.obj
 0001:00005fc6       ?ProcessEditorEventPtr@CPluginW995@@UAEHPAX@Z 10006fc6 f i ConEmuPlugin995.obj
 0001:00005fc6       ?ProcessViewerEventPtr@CPluginW995@@UAEHPAX@Z 10006fc6 f i ConEmuPlugin995.obj
 0001:00005fc6       ?ProcessSynchroEventPtr@CPluginW995@@UAEHPAX@Z 10006fc6 f i ConEmuPlugin995.obj
 0001:00005fc6       ?ProcessEditorEventPtr@CPluginAnsi@@UAEHPAX@Z 10006fc6 f i ConEmuPluginA.obj
 0001:00005fc6       ?ProcessEditorInputPtr@CPluginAnsi@@UAEHPBX@Z 10006fc6 f i ConEmuPluginA.obj
 0001:00005fc6       ?ProcessViewerEventPtr@CPluginAnsi@@UAEHPAX@Z 10006fc6 f i ConEmuPluginA.obj
 0001:00005fcb       ?RedrawAll@CPluginW995@@UAEXXZ 10006fcb f   ConEmuPlugin995.obj
 0001:00005fe8       ?SetStartupInfoPtr@CPluginW995@@UAEXPAX@Z 10006fe8 f   ConEmuPlugin995.obj
 0001:000060ee       ?SetWindow@CPluginW995@@UAEXH@Z 100070ee f   ConEmuPlugin995.obj
 0001:00006122       ?ShowMessage@CPluginW995@@UAEHPB_WH_N@Z 10007122 f   ConEmuPlugin995.obj
 0001:0000616b       ?ShowPluginMenu@CPluginW995@@UAEHPAUConEmuPluginMenuItem@@HH@Z 1000716b f   ConEmuPlugin995.obj
 0001:00006269       ?ShowUserScreen@CPluginW995@@UAEX_N@Z 10007269 f   ConEmuPlugin995.obj
 0001:0000628e       ?StopWaitEndSynchro@CPluginW995@@UAEXXZ 1000728e f   ConEmuPlugin995.obj
 0001:000062a7       ?UpdateConEmuTabsApi@CPluginW995@@UAE_NH@Z 100072a7 f   ConEmuPlugin995.obj
 0001:000064f0       ?WaitEndSynchro@CPluginW995@@UAEXXZ 100074f0 f   ConEmuPlugin995.obj
 0001:00006604       ??0CPluginAnsi@@QAE@XZ     10007604 f   ConEmuPluginA.obj
 0001:00006758       ??_GCPluginAnsi@@UAEPAXI@Z 10007758 f i ConEmuPluginA.obj
 0001:00006758       ??_ECPluginAnsi@@UAEPAXI@Z 10007758 f i ConEmuPluginA.obj
 0001:00006bf3       ?CheckPanelExist@CPluginAnsi@@UAE_NXZ 10007bf3 f   ConEmuPluginA.obj
 0001:00006c17       ?ExecuteSynchroApi@CPluginAnsi@@UAE_NXZ 10007c17 f i ConEmuPluginA.obj
 0001:00006c1a       ?ExitFar@CPluginAnsi@@UAEXXZ 10007c1a f   ConEmuPluginA.obj
 0001:00006c66       ?GetActiveWindowType@CPluginAnsi@@UAEHXZ 10007c66 f   ConEmuPluginA.obj
 0001:00006cd9       ?GetEditorModifiedState@CPluginAnsi@@UAEKXZ 10007cd9 f   ConEmuPluginA.obj
 0001:00006d16       ?GetFarRect@CPluginAnsi@@UAE_NAAU_SMALL_RECT@@@Z 10007d16 f i ConEmuPluginA.obj
 0001:00006d1b       ?GetMsg@CPluginAnsi@@UAEPB_WHPA_WI@Z 10007d1b f   ConEmuPluginA.obj
 0001:00006d8b       ?GetPanelDir@CPluginAnsi@@UAEPA_WKPA_WH@Z 10007d8b f   ConEmuPluginA.obj
 0001:00006e4f       ?GetPanelInfo@CPluginAnsi@@UAE_NKPAUCEPanelInfo@@@Z 10007e4f f   ConEmuPluginA.obj
 0001:00007021       ?GetPanelItemInfo@CPluginAnsi@@UAE_NABUCEPanelInfo@@_NHAAU_WIN32_FIND_DATAW@@PAPA_W@Z 10008021 f   ConEmuPluginA.obj
 0001:0000711d       ?GetPluginInfoPtr@CPluginAnsi@@UAEXPAX@Z 1000811d f   ConEmuPluginA.obj
 0001:0000718a       ?GetWindowCount@CPluginAnsi@@UAEHXZ 1000818a f   ConEmuPluginA.obj
 0001:000071ad       ?GuiMacroDlg@CPluginAnsi@@UAEXXZ 100081ad f   ConEmuPluginA.obj
 0001:000071b2       ?InputBox@CPluginAnsi@@UAE_NPB_W000AAPA_W@Z 100081b2 f   ConEmuPluginA.obj
 0001:000072e2       ?IsMacroActive@CPluginAnsi@@UAE_NXZ 100082e2 f   ConEmuPluginA.obj
 0001:00007338       ?LoadFarColors@CPluginAnsi@@UAEXAAY0BAA@E@Z 10008338 f   ConEmuPluginA.obj
 0001:000073f7       ?LoadFarSettings@CPluginAnsi@@UAEXPAUCEFarInterfaceSettings@@PAUCEFarPanelSettings@@@Z 100083f7 f   ConEmuPluginA.obj
 0001:0000743a       ?OpenEditor@CPluginAnsi@@UAE_NPB_W_N11HH@Z 1000843a f   ConEmuPluginA.obj
 0001:0000751a       ?PanelControlApi@CPluginAnsi@@UAEHPAXHH0@Z 1000851a f   ConEmuPluginA.obj
 0001:00007544       ?PostMacroApi@CPluginAnsi@@UAEXPB_WPAU_INPUT_RECORD@@_N@Z 10008544 f   ConEmuPluginA.obj
 0001:000075f6       ?RedrawAll@CPluginAnsi@@UAEXXZ 100085f6 f   ConEmuPluginA.obj
 0001:00007619       ?SetStartupInfoPtr@CPluginAnsi@@UAEXPAX@Z 10008619 f   ConEmuPluginA.obj
 0001:0000772a       ?SetWindow@CPluginAnsi@@UAEXH@Z 1000872a f   ConEmuPluginA.obj
 0001:0000776a       ?ShowMessage@CPluginAnsi@@UAEHPB_WH_N@Z 1000876a f   ConEmuPluginA.obj
 0001:00007812       ?ShowPluginMenu@CPluginAnsi@@UAEHPAUConEmuPluginMenuItem@@HH@Z 10008812 f   ConEmuPluginA.obj
 0001:00007951       ?ShowUserScreen@CPluginAnsi@@UAEX_N@Z 10008951 f   ConEmuPluginA.obj
 0001:00007977       ?UpdateConEmuTabsApi@CPluginAnsi@@UAE_NH@Z 10008977 f   ConEmuPluginA.obj
 0001:00007be4       ??$swprintf_c@$0BAE@@@YAHAAY0BAE@_WPB_WZZ 10008be4 f i ConEmuPluginBase.obj
 0001:00007bfd       ??$swprintf_c@$0DAM@@@YAHAAY0DAM@_WPB_WZZ 10008bfd f i ConEmuPluginBase.obj
 0001:00007c16       ??$swprintf_c@$0EAA@@@YAHAAY0EAA@_WPB_WZZ 10008c16 f i ConEmuPluginBase.obj
 0001:00007c2f       ??$swprintf_c@$0MI@@@YAHAAY0MI@_WPB_WZZ 10008c2f f i ConEmuPluginBase.obj
 0001:00007c48       ??0CPluginBase@@QAE@XZ     10008c48 f   ConEmuPluginBase.obj
 0001:00007d66       ??0MWow64Disable@@QAE@XZ   10008d66 f i ConEmuPluginBase.obj
 0001:00007dab       ??1?$MFileMapping@UConEmuGuiMapping@@@@QAE@XZ 10008dab f i common-user32:ConEmuCheckEx.obj
 0001:00007dab       ??1?$MFileMapping@UPanelViewSetMapping@@@@QAE@XZ 10008dab f i PluginBackground.obj
 0001:00007dab       ??1?$MFileMapping@UCESERVER_CONSOLE_MAPPING_HDR@@@@QAE@XZ 10008dab f i ConEmuPluginBase.obj
 0001:00007db5       ??1CPluginBase@@UAE@XZ     10008db5 f   ConEmuPluginBase.obj
 0001:00007dbc       ??1MWow64Disable@@QAE@XZ   10008dbc f i ConEmuPluginBase.obj
 0001:00007df2       ??_G?$MFileMapping@UCESERVER_CONSOLE_MAPPING_HDR@@@@QAEPAXI@Z 10008df2 f i ConEmuPluginBase.obj
 0001:00007e1c       ??_GCPluginBase@@UAEPAXI@Z 10008e1c f i ConEmuPluginBase.obj
 0001:00007e1c       ??_ECPluginBase@@UAEPAXI@Z 10008e1c f i ConEmuPluginBase.obj
 0001:00007e42       ?ActivatePlugin@CPluginBase@@QAE_NKPAXK@Z 10008e42 f   ConEmuPluginBase.obj
 0001:00007fdb       ?AddTab@CPluginBase@@QAE_NAAHH_N1HPB_W2HHHH@Z 10008fdb f   ConEmuPluginBase.obj
 0001:000082c4       ?AddTabFinish@CPluginBase@@QAEXH@Z 100092c4 f   ConEmuPluginBase.obj
 0001:000082d6       ?Attach2Gui@CPluginBase@@QAE_N_N@Z 100092d6 f   ConEmuPluginBase.obj
 0001:00008668       ?BackgroundMacroError@CPluginBase@@SGKPAX@Z 10009668 f   ConEmuPluginBase.obj
 0001:0000869b       ?CheckBufferEnabled@CPluginBase@@QAE_NXZ 1000969b f   ConEmuPluginBase.obj
 0001:000086f6       ?CheckConEmuDetached@CPluginBase@@SAXXZ 100096f6 f   ConEmuPluginBase.obj
 0001:00008791       ?CheckResources@CPluginBase@@QAEX_N@Z 10009791 f   ConEmuPluginBase.obj
 0001:00008933       ?CloseMap@?$MFileMapping@UPanelViewSetMapping@@@@QAEXXZ 10009933 f i PluginBackground.obj
 0001:00008933       ?CloseMap@?$MFileMapping@UConEmuGuiMapping@@@@QAEXXZ 10009933 f i common-kernel32:ConEmuCheck.obj
 0001:00008933       ?CloseMap@?$MFileMapping@UCESERVER_CONSOLE_MAPPING_HDR@@@@QAEXXZ 10009933 f i ConEmuPluginBase.obj
 0001:00008966       ?ClosePtr@?$MFileMapping@UConEmuGuiMapping@@@@QAEXXZ 10009966 f i common-kernel32:ConEmuCheck.obj
 0001:00008966       ?ClosePtr@?$MFileMapping@UPanelViewSetMapping@@@@QAEXXZ 10009966 f i PluginBackground.obj
 0001:00008966       ?ClosePtr@?$MFileMapping@UCESERVER_CONSOLE_MAPPING_HDR@@@@QAEXXZ 10009966 f i ConEmuPluginBase.obj
 0001:0000897e       ?CloseTabs@CPluginBase@@SAXXZ 1000997e f   ConEmuPluginBase.obj
 0001:00008a08       ?CommonPluginStartup@CPluginBase@@QAEXXZ 10009a08 f   ConEmuPluginBase.obj
 0001:00008af6       ?CreateTabs@CPluginBase@@SA_NH@Z 10009af6 f   ConEmuPluginBase.obj
 0001:00008bb7       ?Disable@MWow64Disable@@QAEXXZ 10009bb7 f i ConEmuPluginBase.obj
 0001:00008bd1       ?DllCheckUnique@CPluginBase@@KA_N_N@Z 10009bd1 f   ConEmuPluginBase.obj
 0001:00008d96       ?DllMain_ProcessAttach@CPluginBase@@KAXPAUHINSTANCE__@@@Z 10009d96 f   ConEmuPluginBase.obj
 0001:00008e8a       ?DllMain_ProcessDetach@CPluginBase@@KAXXZ 10009e8a f   ConEmuPluginBase.obj
 0001:00008f5b       ?EditViewConsoleOutput@CPluginBase@@QAEX_N@Z 10009f5b f   ConEmuPluginBase.obj
 0001:00008ff2       ?EmergencyShow@CPluginBase@@KAXXZ 10009ff2 f   ConEmuPluginBase.obj
 0001:0000903d       ?ExecuteSynchro@CPluginBase@@QAEXXZ 1000a03d f   ConEmuPluginBase.obj
 0001:000090b3       ?ExitFarCommon@CPluginBase@@QAEX_N@Z 1000a0b3 f   ConEmuPluginBase.obj
 0001:000090d6       ?FarSetConsoleSize@CPluginBase@@SA_NFF@Z 1000a0d6 f   ConEmuPluginBase.obj
 0001:000091bc       ?FillLoadedParm@CPluginBase@@SAXPAUConEmuLoadedArg@@PAUHINSTANCE__@@H@Z 1000a1bc f   ConEmuPluginBase.obj
 0001:0000924a       ?FillUpdateBackground@CPluginBase@@QAEXPAUPaintBackgroundArg@@@Z 1000a24a f   ConEmuPluginBase.obj
 0001:0000938d       ?FindServerCmd@CPluginBase@@QAE_NKAAK_N@Z 1000a38d f   ConEmuPluginBase.obj
 0001:00009477       ?GetMainThreadId@CPluginBase@@SAKXZ 1000a477 f   ConEmuPluginBase.obj
 0001:00009504       ?GetPanelInfo@CPluginBase@@QAE_NKPAUBkPanelInfo@@@Z 1000a504 f   ConEmuPluginBase.obj
 0001:00009586       ?InitHWND@CPluginBase@@SAXXZ 1000a586 f   ConEmuPluginBase.obj
 0001:000097a6       ?InitResources@CPluginBase@@QAEXXZ 1000a7a6 f   ConEmuPluginBase.obj
 0001:0000997b       ?InitRootRegKey@CPluginBase@@IAEXXZ 1000a97b f   ConEmuPluginBase.obj
 0001:00009a42       ?InternalOpenCreate@?$MFileMapping@UCESERVER_CONSOLE_MAPPING_HDR@@@@IAEPAUCESERVER_CONSOLE_MAPPING_HDR@@HHH@Z 1000aa42 f i ConEmuPluginBase.obj
 0001:00009b5c       ?IsCurrentTabModal@CPluginBase@@QAE_NXZ 1000ab5c f   ConEmuPluginBase.obj
 0001:00009be5       ?IsFarLua@FarVersion@@QBE_NXZ 1000abe5 f i ConEmuPluginBase.obj
 0001:00009d17       ?LoadFarVersion@CPluginBase@@SA_NXZ 1000ad17 f   ConEmuPluginBase.obj
 0001:00009f70       ?LoadPanelTabsFromRegistry@CPluginBase@@IAEXXZ 1000af70 f   ConEmuPluginBase.obj
 0001:0000a054       ?MonitorThreadProcW@CPluginBase@@SGKPAX@Z 1000b054 f   ConEmuPluginBase.obj
 0001:0000a422       ?NotifyConEmuUnloaded@CPluginBase@@SAXXZ 1000b422 f   ConEmuPluginBase.obj
 0001:0000a51f       ?OnConsoleDetaching@CPluginBase@@SGHPAUHookCallbackArg@@@Z 1000b51f f   ConEmuPluginBase.obj
 0001:0000a639       ?OnConsolePeekInput@CPluginBase@@SGHPAUHookCallbackArg@@@Z 1000b639 f   ConEmuPluginBase.obj
 0001:0000a698       ?OnConsolePeekInputPost@CPluginBase@@SGXPAUHookCallbackArg@@@Z 1000b698 f   ConEmuPluginBase.obj
 0001:0000a6c6       ?OnConsolePeekReadInput@CPluginBase@@SAX_N@Z 1000b6c6 f   ConEmuPluginBase.obj
 0001:0000a889       ?OnConsoleReadInput@CPluginBase@@SGHPAUHookCallbackArg@@@Z 1000b889 f   ConEmuPluginBase.obj
 0001:0000a899       ?OnConsoleReadInputPost@CPluginBase@@SGXPAUHookCallbackArg@@@Z 1000b899 f   ConEmuPluginBase.obj
 0001:0000aa1b       ?OnConsoleReadInputWork@CPluginBase@@SAHPAUHookCallbackArg@@@Z 1000ba1b f   ConEmuPluginBase.obj
 0001:0000aa85       ?OnConsoleWasAttached@CPluginBase@@SGXPAUHookCallbackArg@@@Z 1000ba85 f   ConEmuPluginBase.obj
 0001:0000aad8       ?OnCurDirChanged@CPluginBase@@SGXXZ 1000bad8 f   ConEmuPluginBase.obj
 0001:0000ab2f       ?OnGetNumberOfConsoleInputEventsPost@CPluginBase@@SGXPAUHookCallbackArg@@@Z 1000bb2f f   ConEmuPluginBase.obj
 0001:0000ab75       ?OnLibraryLoaded@CPluginBase@@SGXPAUHINSTANCE__@@@Z 1000bb75 f   ConEmuPluginBase.obj
 0001:0000abce       ?OnMainThreadActivated@CPluginBase@@QAEXXZ 1000bbce f   ConEmuPluginBase.obj
 0001:0000ad34       ?OnPanelViewCallbacks@CPluginBase@@SA_NPAUHookCallbackArg@@P6GHPAXPAU_INPUT_RECORD@@KPAKPAH@Z5@Z 1000bd34 f   ConEmuPluginBase.obj
 0001:0000add7       ?OnShellExecuteExW_Except@CPluginBase@@SGXPAUHookCallbackArg@@@Z 1000bdd7 f   ConEmuPluginBase.obj
 0001:0000ae09       ?OnWriteConsoleOutput@CPluginBase@@SGHPAUHookCallbackArg@@@Z 1000be09 f   ConEmuPluginBase.obj
 0001:0000ae98       ?OpenMapHeader@CPluginBase@@SAHXZ 1000be98 f   ConEmuPluginBase.obj
 0001:0000af67       ?OpenPluginCommon@CPluginBase@@QAEPAXHH_N@Z 1000bf67 f   ConEmuPluginBase.obj
 0001:0000b1f5       ?OutDataAlloc@CPluginBase@@SA_NK@Z 1000c1f5 f   ConEmuPluginBase.obj
 0001:0000b24f       ?OutDataRealloc@CPluginBase@@SA_NK@Z 1000c24f f   ConEmuPluginBase.obj
 0001:0000b302       ?OutDataWrite@CPluginBase@@SA_NPAXK@Z 1000c302 f   ConEmuPluginBase.obj
 0001:0000b37e       ?PanelControl@CPluginBase@@QAEHPAXHH0@Z 1000c37e f   ConEmuPluginBase.obj
 0001:0000b3e5       ?Plugin@@YAPAVCPluginBase@@XZ 1000c3e5 f   ConEmuPluginBase.obj
 0001:0000b4bb       ?PostMacro@CPluginBase@@QAEXPB_WPAU_INPUT_RECORD@@_N@Z 1000c4bb f   ConEmuPluginBase.obj
 0001:0000b4fc       ?PrintText@CPluginBase@@QAE_NPB_W@Z 1000c4fc f   ConEmuPluginBase.obj
 0001:0000b5fa       ?ProcessCommand@CPluginBase@@QAE_NKHPAXPAPAUCESERVER_REQ@@_N@Z 1000c5fa f   ConEmuPluginBase.obj
 0001:0000ba2a       ?ProcessCommandLine@CPluginBase@@QAE_NPA_W@Z 1000ca2a f   ConEmuPluginBase.obj
 0001:0000ba63       ?ProcessDragFrom@CPluginBase@@QAEXXZ 1000ca63 f   ConEmuPluginBase.obj
 0001:0000c008       ?ProcessDragTo@CPluginBase@@QAEXXZ 1000d008 f   ConEmuPluginBase.obj
 0001:0000c366       ?ProcessEditorInputInternal@CPluginBase@@QAEXABU_INPUT_RECORD@@@Z 1000d366 f   ConEmuPluginBase.obj
 0001:0000c398       ?ProcessEditorViewerEvent@CPluginBase@@QAEHHH@Z 1000d398 f   ConEmuPluginBase.obj
 0001:0000c433       ?ProcessSetWindowCommand@CPluginBase@@QAEXXZ 1000d433 f   ConEmuPluginBase.obj
 0001:0000c4fc       ?ProcessSynchroEvent@CPluginBase@@QAEHHPAX@Z 1000d4fc f   ConEmuPluginBase.obj
 0001:0000c56e       ?ReloadFarInfo@CPluginBase@@QAE_N_N@Z 1000d56e f   ConEmuPluginBase.obj
 0001:0000c794       ?ReloadFarInfoApi@CPluginBase@@IAE_NXZ 1000d794 f   ConEmuPluginBase.obj
 0001:0000c91e       ?Restore@MWow64Disable@@QAEXXZ 1000d91e f i ConEmuPluginBase.obj
 0001:0000c935       ?RunExternalProgram@CPluginBase@@QAE_NPA_W@Z 1000d935 f   ConEmuPluginBase.obj
 0001:0000ca70       ?RunExternalProgramW@CPluginBase@@SA_NPA_W0_N@Z 1000da70 f   ConEmuPluginBase.obj
 0001:0000cc43       ?SendTabs@CPluginBase@@SAXH_N@Z 1000dc43 f   ConEmuPluginBase.obj
 0001:0000cdce       ?SetRootRegKey@CPluginBase@@IAEXPA_W@Z 1000ddce f   ConEmuPluginBase.obj
 0001:0000ce6f       ?ShowConsoleInfo@CPluginBase@@QAEXXZ 1000de6f f   ConEmuPluginBase.obj
 0001:0000cfe3       ?ShowMessage@CPluginBase@@QAEHHH@Z 1000dfe3 f   ConEmuPluginBase.obj
 0001:0000d049       ?ShowMessageBox@CPluginBase@@KAHPB_WI@Z 1000e049 f   ConEmuPluginBase.obj
 0001:0000d0df       ?ShowMessageGui@CPluginBase@@QAEHHH@Z 1000e0df f   ConEmuPluginBase.obj
 0001:0000d149       ?ShowPanelsList@CPluginBase@@QAEXXZ 1000e149 f   ConEmuPluginBase.obj
 0001:0000d266       ?ShowPluginMenu@CPluginBase@@QAEXW4PluginCallCommands@@@Z 1000e266 f   ConEmuPluginBase.obj
 0001:0000d41d       ?ShowProtocolWarning@CPluginBase@@KAXXZ 1000e41d f   ConEmuPluginBase.obj
 0001:0000d55d       ?ShowTabsList@CPluginBase@@QAEXXZ 1000e55d f   ConEmuPluginBase.obj
 0001:0000d798       ?StartDebugger@CPluginBase@@QAE_NXZ 1000e798 f   ConEmuPluginBase.obj
 0001:0000da02       ?StopThread@CPluginBase@@QAEX_N@Z 1000ea02 f   ConEmuPluginBase.obj
 0001:0000dbdd       ?StorePanelDirs@CPluginBase@@QAE_NPB_W0@Z 1000ebdd f   ConEmuPluginBase.obj
 0001:0000dcfb       ?StringCchCatW@@YGJPA_WIPB_W@Z 1000ecfb f i ConEmuPluginBase.obj
 0001:0000ddb8       ?SwitchTabCommand@CPluginBase@@QAEXW4PluginMenuCommands@@@Z 1000edb8 f   ConEmuPluginBase.obj
 0001:0000de32       ?ToOem@CPluginBase@@SAPADPB_W@Z 1000ee32 f   ConEmuPluginBase.obj
 0001:0000de7b       ?ToOem@CPluginBase@@SAXPB_WPADH@Z 1000ee7b f   ConEmuPluginBase.obj
 0001:0000dea2       ?ToUnicode@CPluginBase@@SAPA_WPBD@Z 1000eea2 f   ConEmuPluginBase.obj
 0001:0000df04       ?UngetDummyMouseEvent@CPluginBase@@SA_N_NPAUHookCallbackArg@@@Z 1000ef04 f   ConEmuPluginBase.obj
 0001:0000e07f       ?UpdateConEmuTabs@CPluginBase@@QAE_N_N@Z 1000f07f f   ConEmuPluginBase.obj
 0001:0000e277       ?UpdatePanelDirs@CPluginBase@@QAEXXZ 1000f277 f   ConEmuPluginBase.obj
 0001:0000e3f1       ?WaitPluginActivation@CPluginBase@@SAKKPAPAXHK@Z 1000f3f1 f   ConEmuPluginBase.obj
 0001:0000e4dd       ?cmd_CloseQSearch@CPluginBase@@QAEXXZ 1000f4dd f   ConEmuPluginBase.obj
 0001:0000e507       ?cmd_ConSetFont@CPluginBase@@QAEXPAX@Z 1000f507 f   ConEmuPluginBase.obj
 0001:0000e539       ?cmd_EMenu@CPluginBase@@QAEXPAX@Z 1000f539 f   ConEmuPluginBase.obj
 0001:0000e5d6       ?cmd_ExternalCallback@CPluginBase@@QAE_NPAX@Z 1000f5d6 f   ConEmuPluginBase.obj
 0001:0000e619       ?cmd_GuiChanged@CPluginBase@@QAEXPAX@Z 1000f619 f   ConEmuPluginBase.obj
 0001:0000e690       ?cmd_LeftClickSync@CPluginBase@@QAEXPAX@Z 1000f690 f   ConEmuPluginBase.obj
 0001:0000e75f       ?cmd_OpenEditorLine@CPluginBase@@QAE_NPAUCESERVER_REQ_FAREDITOR@@@Z 1000f75f f   ConEmuPluginBase.obj
 0001:0000e7f8       ?cmd_RedrawFarCall@CPluginBase@@QAE_NAAPAUCESERVER_REQ@@PAPAU2@@Z 1000f7f8 f   ConEmuPluginBase.obj
 0001:0000e88e       ?cmd_SetWindow@CPluginBase@@QAE_NPAX_N@Z 1000f88e f   ConEmuPluginBase.obj
 0001:0000e8fe       ?isMacroActive@CPluginBase@@QAE_NAAH@Z 1000f8fe f   ConEmuPluginBase.obj
 0001:0000e936       ?isModalEditorViewer@CPluginBase@@QAE_NXZ 1000f936 f   ConEmuPluginBase.obj
 0001:0000e95c       ?pcc_Disabled@CPluginBase@@SA_NW4PluginMenuCommands@@@Z 1000f95c f   ConEmuPluginBase.obj
 0001:0000e9c9       ?pcc_Selected@CPluginBase@@SA_NW4PluginMenuCommands@@@Z 1000f9c9 f   ConEmuPluginBase.obj
 0001:0000ea1c       _wmemcmp                   1000fa1c f i ConEmuPluginBase.obj
 0001:0000ea52       ??0CPluginBackground@@QAE@XZ 1000fa52 f   PluginBackground.obj
 0001:0000ec1a       ??1CPluginBackground@@QAE@XZ 1000fc1a f   PluginBackground.obj
 0001:0000ede9       ?CheckPanelFolders@CPluginBackground@@IAEXH@Z 1000fde9 f   PluginBackground.obj
 0001:0000ee95       ?InitName@?$MFileMapping@UConEmuGuiMapping@@@@QAEPB_WPB_WKK@Z 1000fe95 f i common-kernel32:ConEmuCheck.obj
 0001:0000ee95       ?InitName@?$MFileMapping@UPanelViewSetMapping@@@@QAEPB_WPB_WKK@Z 1000fe95 f i PluginBackground.obj
 0001:0000ee95       ?InitName@?$MFileMapping@UCESERVER_CONSOLE_MAPPING_HDR@@@@QAEPB_WPB_WKK@Z 1000fe95 f i ConEmuPluginBase.obj
 0001:0000eec6       ?InternalOpenCreate@?$MFileMapping@UPanelViewSetMapping@@@@IAEPAUPanelViewSetMapping@@HHH@Z 1000fec6 f i PluginBackground.obj
 0001:0000efe0       ?IsParmChanged@CPluginBackground@@IAE_NPAUPaintBackgroundArg@@0@Z 1000ffe0 f   PluginBackground.obj
 0001:0000f201       ?LoadThSet@CPluginBackground@@IAEHH@Z 10010201 f   PluginBackground.obj
 0001:0000f37a       ?MonitorBackground@CPluginBackground@@QAEXXZ 1001037a f   PluginBackground.obj
 0001:0000f3d2       ?OnMainThreadActivated@CPluginBackground@@QAEXHH@Z 100103d2 f   PluginBackground.obj
 0001:0000f49a       ?ReallocItems@CPluginBackground@@IAEXH@Z 1001049a f   PluginBackground.obj
 0001:0000f4fb       ?RegisterSubplugin@CPluginBackground@@QAEHPAURegisterBackgroundArg@@@Z 100104fb f   PluginBackground.obj
 0001:0000f709       ?SetDcPanelRect@CPluginBackground@@IAEXPAUtagRECT@@PAUBkPanelInfo@@PAUPaintBackgroundArg@@@Z 10010709 f   PluginBackground.obj
 0001:0000f7e6       ?SetForceThLoad@CPluginBackground@@QAEXXZ 100107e6 f   PluginBackground.obj
 0001:0000f7f9       ?SetForceUpdate@CPluginBackground@@QAEX_N@Z 100107f9 f   PluginBackground.obj
 0001:0000f81b       ?UpdateBackground@CPluginBackground@@IAEXXZ 1001081b f   PluginBackground.obj
 0001:0000ff76       ?UpdateBackground_Exec@CPluginBackground@@KAXPAURegisterBackgroundArg@@PAUPaintBackgroundArg@@@Z 10010f76 f   PluginBackground.obj
 0001:0000ffa0       ??$swprintf_c@$09@@YAHAAY09_WPB_WZZ 10010fa0 f i PluginSrv.obj
 0001:0000ffb6       ?AllocRequestBuf@PipeInst@?$PipeServer@UCESERVER_REQ@@@@QAEPAUCESERVER_REQ@@K@Z 10010fb6 f i PluginSrv.obj
 0001:00010009       ?DumpError@?$PipeServer@UCESERVER_REQ@@@@IAEXPAUPipeInst@1@PB_WH@Z 10011009 f i PluginSrv.obj
 0001:000100de       ?PipeServerRead@?$PipeServer@UCESERVER_REQ@@@@IAEHPAUPipeInst@1@@Z 100110de f i PluginSrv.obj
 0001:0001034e       ?PipeServerThread@?$PipeServer@UCESERVER_REQ@@@@IAEKPAUPipeInst@1@@Z 1001134e f i PluginSrv.obj
 0001:0001057d       ?PipeServerWrite@?$PipeServer@UCESERVER_REQ@@@@IAEHPAUPipeInst@1@PBXKPAKH@Z 1001157d f i PluginSrv.obj
 0001:00010660       ?PlugServerCommand@@YGHPAXPAUCESERVER_REQ@@AAPAU1@AAK3J@Z 10011660 f   PluginSrv.obj
 0001:00010b29       ?PlugServerFree@@YGXPAUCESERVER_REQ@@J@Z 10011b29 f   PluginSrv.obj
 0001:00010b3a       ?PlugServerStart@@YA_NXZ   10011b3a f   PluginSrv.obj
 0001:00010bf1       ?PlugServerStop@@YAX_N@Z   10011bf1 f   PluginSrv.obj
 0001:00010c36       ?SetMaxCount@?$PipeServer@UCESERVER_REQ@@@@QAEXH@Z 10011c36 f i PluginSrv.obj
 0001:00010c5d       ?StartPipeInstance@?$PipeServer@UCESERVER_REQ@@@@IAE_NPAUPipeInst@1@@Z 10011c5d f i PluginSrv.obj
 0001:00010d8e       ?StartPipeServer@?$PipeServer@UCESERVER_REQ@@@@QAE_N_NPB_WJPAU_SECURITY_ATTRIBUTES@@P6GHPAXPAUCESERVER_REQ@@AAPAU3@AAK6J@ZP6GX4J@ZP6GH3J@Z99@Z 10011d8e f i PluginSrv.obj
 0001:00010ed3       ?StopPipeServer@?$PipeServer@UCESERVER_REQ@@@@QAEX_NAA_N@Z 10011ed3 f i PluginSrv.obj
 0001:000111c8       ?TerminatePipeThread@?$PipeServer@UCESERVER_REQ@@@@KAXAAPAXABUPipeInst@1@AA_N@Z 100121c8 f i PluginSrv.obj
 0001:0001121e       ?WaitForClient@?$PipeServer@UCESERVER_REQ@@@@IAE_NPAUPipeInst@1@AAH1@Z 1001221e f i PluginSrv.obj
 0001:000114b2       ?WaitOverlapped@?$PipeServer@UCESERVER_REQ@@@@IAEHPAUPipeInst@1@PAK@Z 100124b2 f i PluginSrv.obj
 0001:00011603       ?WriteDummyAnswer@?$PipeServer@UCESERVER_REQ@@@@IAEHPAUPipeInst@1@@Z 10012603 f i PluginSrv.obj
 0001:00011673       ?_Disconnect@?$PipeServer@UCESERVER_REQ@@@@IAEXPAUPipeInst@1@_N11@Z 10012673 f i PluginSrv.obj
 0001:000116c7       ?_PipeServerThread@?$PipeServer@UCESERVER_REQ@@@@KGKPAX@Z 100126c7 f i PluginSrv.obj
 0001:0001170e       ?cmd_FarSetChanged@@YAXPAUFAR_REQ_FARSETCHANGED@@@Z 1001270e f   PluginSrv.obj
 0001:0001175c       _GetFileVersionInfoSizeW@8 1001275c f   version:VERSION.dll
 0001:00011762       _GetFileVersionInfoW@16    10012762 f   version:VERSION.dll
 0001:00011768       _VerQueryValueW@16         10012768 f   version:VERSION.dll
 0001:0001176e       _CreateToolhelp32Snapshot@8 1001276e f   kernel32:KERNEL32.dll
 0001:00011774       _Thread32First@8           10012774 f   kernel32:KERNEL32.dll
 0001:0001177a       _Thread32Next@8            1001277a f   kernel32:KERNEL32.dll
 0001:00011780       _Module32FirstW@8          10012780 f   kernel32:KERNEL32.dll
 0001:00011786       _Module32NextW@8           10012786 f   kernel32:KERNEL32.dll
 0001:0001178c       ??2@YAPAXI@Z               1001278c f   common-kernel32:Memory.obj
 0001:000117b9       ??3@YAXPAX@Z               100127b9 f   common-kernel32:Memory.obj
 0001:000117d3       ??_U@YAPAXI@Z              100127d3 f   common-kernel32:Memory.obj
 0001:000117ed       ??_V@YAXPAX@Z              100127ed f   common-kernel32:Memory.obj
 0001:00011807       ?HeapDeinitialize@@YAXXZ   10012807 f   common-kernel32:Memory.obj
 0001:0001181f       ?HeapInitialize@@YA_NXZ    1001281f f   common-kernel32:Memory.obj
 0001:00011841       ?xf_calloc@@YAPAXIIPBDH@Z  10012841 f   common-kernel32:Memory.obj
 0001:0001189f       ?xf_free@@YAXPAXPBDH@Z     1001289f f   common-kernel32:Memory.obj
 0001:000118d4       ?xf_malloc@@YAPAXIPBDH@Z   100128d4 f   common-kernel32:Memory.obj
 0001:0001192e       ?xf_realloc@@YAPAXPAXIPBDH@Z 1001292e f   common-kernel32:Memory.obj
 0001:000119b5       ?xf_set_tag@@YAXPAXPBDH_N@Z 100129b5 f   common-kernel32:Memory.obj
 0001:00011a31       ??0?$MFileMapping@UConEmuGuiMapping@@@@QAE@XZ 10012a31 f i common-kernel32:ConEmuCheck.obj
 0001:00011a31       ??0?$MFileMapping@UCESERVER_CONSOLE_MAPPING_HDR@@@@QAE@XZ 10012a31 f i ConEmuPluginBase.obj
 0001:00011a31       ??0?$MFileMapping@UPanelViewSetMapping@@@@QAE@XZ 10012a31 f i PluginBackground.obj
 0001:00011a55       ?ExecuteCmd@@YAPAUCESERVER_REQ@@PB_WPAU1@KPAUHWND__@@HKH@Z 10012a55 f   common-kernel32:ConEmuCheck.obj
 0001:00011c2b       ?ExecuteFreeResult@@YAXAAPAUCESERVER_REQ@@@Z 10012c2b f   common-kernel32:ConEmuCheck.obj
 0001:00011c4f       ?ExecuteGuiCmd@@YAPAUCESERVER_REQ@@PAUHWND__@@PAU1@0H@Z 10012c4f f   common-kernel32:ConEmuCheck.obj
 0001:00011cd2       ?ExecuteNewCmd@@YAPAUCESERVER_REQ@@KI@Z 10012cd2 f   common-kernel32:ConEmuCheck.obj
 0001:00011d1b       ?ExecuteNewCmd@@YA_NAAPAUCESERVER_REQ@@AAKKI@Z 10012d1b f   common-kernel32:ConEmuCheck.obj
 0001:00011d79       ?ExecuteOpenPipe@@YAPAXPB_WAAY0CAI@_W0KKHPAXH@Z 10012d79 f   common-kernel32:ConEmuCheck.obj
 0001:00011eb2       ?ExecutePrepareCmd@@YAXPAUCESERVER_REQ@@KI@Z 10012eb2 f   common-kernel32:ConEmuCheck.obj
 0001:00011ee9       ?ExecutePrepareCmd@@YAXPAUCESERVER_REQ_HDR@@KI@Z 10012ee9 f   common-kernel32:ConEmuCheck.obj
 0001:00011f51       ?ExecuteSrvCmd@@YAPAUCESERVER_REQ@@KPAU1@PAUHWND__@@HKH@Z 10012f51 f   common-kernel32:ConEmuCheck.obj
 0001:00011fea       ?GetConEmuHWND@@YAPAUHWND__@@H@Z 10012fea f   common-kernel32:ConEmuCheck.obj
 0001:0001210d       ?GuiMessageBox@@YAHPAUHWND__@@PB_W1H@Z 1001310d f   common-kernel32:ConEmuCheck.obj
 0001:0001223e       ?InternalOpenCreate@?$MFileMapping@UConEmuGuiMapping@@@@IAEPAUConEmuGuiMapping@@HHH@Z 1001323e f i common-kernel32:ConEmuCheck.obj
 0001:00012358       ?LoadSrvMapping@@YAHPAUHWND__@@AAUCESERVER_CONSOLE_MAPPING_HDR@@@Z 10013358 f   common-kernel32:ConEmuCheck.obj
 0001:0001240c       ?ModuleName@@YAPB_WPB_W@Z  1001340c f   common-kernel32:ConEmuCheck.obj
 0001:000124ab       ?StringCchCopyNW@@YGJPA_WIPB_WI@Z 100134ab f i common-kernel32:ConEmuCheck.obj
 0001:0001255c       ?isConsoleClass@@YA_NPB_W@Z 1001355c f   common-kernel32:ConEmuCheck.obj
 0001:00012596       ?isConsoleWindow@@YA_NPAUHWND__@@@Z 10013596 f   common-kernel32:ConEmuCheck.obj
 0001:0001265b       ?myGetConsoleWindow@@YAPAUHWND__@@XZ 1001365b f   common-kernel32:ConEmuCheck.obj
 0001:000126cd       ?StringCchVPrintfA@@YGJPADIPBD0@Z 100136cd f i common-kernel32:MStrSafe.obj
 0001:00012722       ?lstrcmpni@@YAHPB_W0H@Z    10013722 f   common-kernel32:MStrSafe.obj
 0001:0001281c       ?msprintf@@YAPB_WPA_WIPB_WZZ 1001381c f   common-kernel32:MStrSafe.obj
 0001:00012c42       ?sprintf_c@@YAHPADHPBDZZ   10013c42 f   common-kernel32:MStrSafe.obj
 0001:00012c65       ?swprintf_c@@YAHPA_WHPB_WZZ 10013c65 f   common-kernel32:MStrSafe.obj
 0001:00012c88       __vsnprintf_l              10013c88 f i common-kernel32:MStrSafe.obj
 0001:00012cba       ?IsFilePath@@YA_NPB_W_N@Z  10013cba f   common-kernel32:CmdLine.obj
 0001:00012de6       ?PointToExt@@YAPB_WPB_W@Z  10013de6 f   common-kernel32:CmdLine.obj
 0001:00012e04       ?PointToName@@YAPB_WPB_W@Z 10013e04 f   common-kernel32:CmdLine.obj
 0001:00012e46       ?Unquote@@YAPB_WPA_W_N@Z   10013e46 f   common-kernel32:CmdLine.obj
 0001:00012e91       ??$sprintf_c@$0CI@@@YAHAAY0CI@DPBDZZ 10013e91 f i common-kernel32:WThreads.obj
 0001:00012ea7       ?SetThreadName@@YAXKPAD@Z  10013ea7 f   common-kernel32:WThreads.obj
 0001:00012ef6       ?apiCreateThread@@YAPAXP6GKPAX@Z0PAKPBDH@Z 10013ef6 f   common-kernel32:WThreads.obj
 0001:00012ff0       ?apiTerminateThreadEx@@YAHPAXKPBDH@Z 10013ff0 f   common-kernel32:WThreads.obj
 0001:000130c6       ?apiThreadHelper@@YGKPAX@Z 100140c6 f   common-kernel32:WThreads.obj
 0001:00013254       ?lstrdup@@YAPA_WPB_WI@Z    10014254 f   common-kernel32:MStrDup.obj
 0001:000132a9       ?lstrmerge@@YAPA_WPB_W00000000@Z 100142a9 f   common-kernel32:MStrDup.obj
 0001:000133ae       ?lstrmerge@@YA_NPAPA_WPB_W1111111@Z 100143ae f   common-kernel32:MStrDup.obj
 0001:00013403       ?ExpandEnvStr@@YAPA_WPB_W@Z 10014403 f   common-kernel32:WObjects.obj
 0001:00013493       ?FileExists@@YA_NPB_WPAK@Z 10014493 f   common-kernel32:WObjects.obj
 0001:000135bd       ?GetEnvVar@@YAPA_WPB_W@Z   100145bd f   common-kernel32:WObjects.obj
 0001:00013656       ?IsWin6@@YA_NXZ            10014656 f   common-kernel32:WObjects.obj
 0001:00013684       ?IsWinVerOrHigher@@YA_NG@Z 10014684 f   common-kernel32:WObjects.obj
 0001:0001370d       ?IsWindows64@@YA_NXZ       1001470d f   common-kernel32:WObjects.obj
 0001:0001377f       ?CommonShutdown@@YAXXZ     1001477f f   common-kernel32:Common.obj
 0001:0001378e       ?IsEnvBlockVariableValid@@YA_NPB_WAAPB_W@Z 1001478e f   common-kernel32:Common.obj
 0001:000137de       ?SetCommand@CESERVER_REQ_NEWCMD@@QAEXPB_W@Z 100147de f   common-kernel32:Common.obj
 0001:00013834       ?SetEnvStrings@CESERVER_REQ_NEWCMD@@QAEXPB_WK@Z 10014834 f   common-kernel32:Common.obj
 0001:0001390b       ??0MNullDesc@@QAE@XZ       1001490b f i common-kernel32:MSecurity.obj
 0001:0001392d       ??1MNullDesc@@QAE@XZ       1001492d f i common-kernel32:MSecurity.obj
 0001:00013965       ?LoadAdvApi@MNullDesc@@IAEHXZ 10014965 f i common-kernel32:MSecurity.obj
 0001:00013aba       ?LocalSecurity@@YAPAU_SECURITY_ATTRIBUTES@@XZ 10014aba f   common-kernel32:MSecurity.obj
 0001:00013ae6       ?LocalSecurity@MNullDesc@@QAEPAU_SECURITY_ATTRIBUTES@@XZ 10014ae6 f i common-kernel32:MSecurity.obj
 0001:00013c14       ?ShutdownSecurity@@YAXXZ   10014c14 f   common-kernel32:MSecurity.obj
 0001:00013c39       ??0CEStr@@QAE@$$QAPA_W@Z   10014c39 f   common-kernel32:CEStr.obj
 0001:00013c5c       ??0CEStr@@QAE@PB_W00000000@Z 10014c5c f   common-kernel32:CEStr.obj
 0001:00013ca6       ??0CEStr@@QAE@XZ           10014ca6 f   common-kernel32:CEStr.obj
 0001:00013cb9       ??1CEStr@@QAE@XZ           10014cb9 f   common-kernel32:CEStr.obj
 0001:00013cfd       ??BCEStr@@QBEPB_WXZ        10014cfd f   common-kernel32:CEStr.obj
 0001:00013d00       ?AttachInt@CEStr@@AAEPB_WAAPA_W@Z 10014d00 f   common-kernel32:CEStr.obj
 0001:00013d73       ?Empty@CEStr@@QAEXXZ       10014d73 f   common-kernel32:CEStr.obj
 0001:00013d94       ?GetBuffer@CEStr@@QAEPA_WH@Z 10014d94 f   common-kernel32:CEStr.obj
 0001:00013e26       ?GetLen@CEStr@@QBEHXZ      10014e26 f   common-kernel32:CEStr.obj
 0001:00013e54       ?GetMaxCount@CEStr@@QAEHXZ 10014e54 f   common-kernel32:CEStr.obj
 0001:00013e70       ?SavePathVar@CEStr@@QAEXPB_W@Z 10014e70 f   common-kernel32:CEStr.obj
 0001:00013e9e       ?Set@CEStr@@QAEPB_WPB_WH@Z 10014e9e f   common-kernel32:CEStr.obj
 0001:00013f5d       ?Init@HkFunc@@QAE_NPB_WPAUHINSTANCE__@@@Z 10014f5d f   common-kernel32:HkFunc.obj
 0001:00013fbb       ?isConEmuHk@HkFunc@@QAE_NXZ 10014fbb f   common-kernel32:HkFunc.obj
 0001:00013fc2       ??0?$MToolHelp@UtagPROCESSENTRY32W@@$1?Process32FirstW@@YGHPAXPAU1@@Z$1?Process32NextW@@YGH01@Z@@QAE@KK@Z 10014fc2 f i common-kernel32:MProcess.obj
 0001:0001402a       ??1?$MToolHelp@UtagPROCESSENTRY32W@@$1?Process32FirstW@@YGHPAXPAU1@@Z$1?Process32NextW@@YGH01@Z@@UAE@XZ 1001502a f i common-kernel32:MProcess.obj
 0001:00014046       ??_EMToolHelpProcess@@UAEPAXI@Z 10015046 f i common-kernel32:MProcess.obj
 0001:00014046       ??_E?$MToolHelp@UtagPROCESSENTRY32W@@$1?Process32FirstW@@YGHPAXPAU1@@Z$1?Process32NextW@@YGH01@Z@@UAEPAXI@Z 10015046 f i common-kernel32:MProcess.obj
 0001:00014046       ??_GMToolHelpProcess@@UAEPAXI@Z 10015046 f i common-kernel32:MProcess.obj
 0001:00014046       ??_G?$MToolHelp@UtagPROCESSENTRY32W@@$1?Process32FirstW@@YGHPAXPAU1@@Z$1?Process32NextW@@YGH01@Z@@UAEPAXI@Z 10015046 f i common-kernel32:MProcess.obj
 0001:0001406b       ?Close@?$MToolHelp@UtagPROCESSENTRY32W@@$1?Process32FirstW@@YGHPAXPAU1@@Z$1?Process32NextW@@YGH01@Z@@QAEX_N@Z 1001506b f i common-kernel32:MProcess.obj
 0001:000140b9       ?Filter@?$MToolHelp@UtagPROCESSENTRY32W@@$1?Process32FirstW@@YGHPAXPAU1@@Z$1?Process32NextW@@YGH01@Z@@MAE_NPAUtagPROCESSENTRY32W@@@Z 100150b9 f i common-kernel32:MProcess.obj
 0001:000140be       ?Find@?$MToolHelp@UtagPROCESSENTRY32W@@$1?Process32FirstW@@YGHPAXPAU1@@Z$1?Process32NextW@@YGH01@Z@@QAE_NP6A_NPAUtagPROCESSENTRY32W@@J@ZJ0@Z 100150be f i common-kernel32:MProcess.obj
 0001:00014155       ?Next@?$MToolHelp@UtagPROCESSENTRY32W@@$1?Process32FirstW@@YGHPAXPAU1@@Z$1?Process32NextW@@YGH01@Z@@QAE_NPAUtagPROCESSENTRY32W@@@Z 10015155 f i common-kernel32:MProcess.obj
 0001:000141a0       ?Open@?$MToolHelp@UtagPROCESSENTRY32W@@$1?Process32FirstW@@YGHPAXPAU1@@Z$1?Process32NextW@@YGH01@Z@@QAE_NXZ 100151a0 f i common-kernel32:MProcess.obj
 0001:000141d1       ?addsize@?$MArray@UtagPROCESSENTRY32W@@@@QAEXH@Z 100151d1 f i common-kernel32:MProcess.obj
 0001:00014272       ?clear@?$MArray@UtagPROCESSENTRY32W@@@@QAEXXZ 10015272 f i common-kernel32:MProcess.obj
 0001:000142af       ?getNext@?$MToolHelp@UtagPROCESSENTRY32W@@$1?Process32FirstW@@YGHPAXPAU1@@Z$1?Process32NextW@@YGH01@Z@@IAE_NXZ 100152af f i common-kernel32:MProcess.obj
 0001:00014330       ?isTerminalMode@@YA_NXZ    10015330 f   common-kernel32:MProcess.obj
 0001:00014438       ?push_back@?$MArray@UtagPROCESSENTRY32W@@@@QAEHABUtagPROCESSENTRY32W@@@Z 10015438 f i common-kernel32:MProcess.obj
 0001:0001448f       ??0MSection@@QAE@XZ        1001548f f   common-kernel32:MSection.obj
 0001:000144ee       ??0MSectionLock@@QAE@XZ    100154ee f   common-kernel32:MSection.obj
 0001:000144fb       ??0MSectionThread@@QAE@PAVMSection@@@Z 100154fb f   common-kernel32:MSection.obj
 0001:00014516       ??1MSection@@QAE@XZ        10015516 f   common-kernel32:MSection.obj
 0001:00014570       ??1MSectionLock@@QAE@XZ    10015570 f   common-kernel32:MSection.obj
 0001:00014589       ??1MSectionThread@@QAE@XZ  10015589 f   common-kernel32:MSection.obj
 0001:0001459f       ?AddRef@MSection@@IAEXK@Z  1001559f f   common-kernel32:MSection.obj
 0001:0001460a       ?Lock@MSection@@IAEHHK@Z   1001560a f   common-kernel32:MSection.obj
 0001:000146d4       ?Lock@MSectionLock@@QAEHPAVMSection@@HK@Z 100156d4 f   common-kernel32:MSection.obj
 0001:0001471f       ?MyEnterCriticalSection@MSection@@IAE_NK@Z 1001571f f   common-kernel32:MSection.obj
 0001:00014809       ?ReleaseRef@MSection@@IAEHK@Z 10015809 f   common-kernel32:MSection.obj
 0001:00014876       ?ThreadTerminated@MSection@@QAEXK@Z 10015876 f   common-kernel32:MSection.obj
 0001:0001489c       ?Unlock@MSection@@IAEXH@Z  1001589c f   common-kernel32:MSection.obj
 0001:000148da       ?Unlock@MSectionLock@@QAEXXZ 100158da f   common-kernel32:MSection.obj
 0001:000148f7       ?WaitUnlocked@MSection@@IAEXKK@Z 100158f7 f   common-kernel32:MSection.obj
 0001:00014954       ?CheckCallbackPtr@@YA_NPAUHINSTANCE__@@IPAP6GHXZHHH@Z 10015954 f   common-kernel32:WModuleCheck.obj
 0001:00014a21       ?IsModuleValid@@YA_NPAUHINSTANCE__@@H@Z 10015a21 f   common-kernel32:WModuleCheck.obj
 0001:00014af7       ??0MSectionSimple@@QAE@_N@Z 10015af7 f   common-kernel32:MSectionSimple.obj
 0001:00014b2a       ?Close@MSectionSimple@@QAEXXZ 10015b2a f   common-kernel32:MSectionSimple.obj
 0001:00014b2a       ??1MSectionSimple@@QAE@XZ  10015b2a f   common-kernel32:MSectionSimple.obj
 0001:00014b40       ?Enter@MSectionSimple@@QAEXXZ 10015b40 f   common-kernel32:MSectionSimple.obj
 0001:00014b48       ?Init@MSectionSimple@@QAEXXZ 10015b48 f   common-kernel32:MSectionSimple.obj
 0001:00014b5e       ?Leave@MSectionSimple@@QAEXXZ 10015b5e f   common-kernel32:MSectionSimple.obj
 0001:00014b66       ?RecreateAndLock@MSectionSimple@@QAE_NXZ 10015b66 f   common-kernel32:MSectionSimple.obj
 0001:00014baf       ?TryEnter@MSectionSimple@@QAE_NXZ 10015baf f   common-kernel32:MSectionSimple.obj
 0001:00014bce       ??0CEnvStrings@@QAE@PA_W@Z 10015bce f   common-user32:SetEnvVar.obj
 0001:00014c17       ??1CEnvStrings@@QAE@XZ     10015c17 f   common-user32:SetEnvVar.obj
 0001:00014c2c       ?SetConEmuEnvHWND@@YAXPB_WPAUHWND__@@@Z 10015c2c f   common-user32:SetEnvVar.obj
 0001:00014c79       ?SetConEmuEnvVar@@YAXPAUHWND__@@@Z 10015c79 f   common-user32:SetEnvVar.obj
 0001:00014ce5       ?SetConEmuEnvVarChild@@YAXPAUHWND__@@0@Z 10015ce5 f   common-user32:SetEnvVar.obj
 0001:00014d07       ??$wcscpy_add@$0BAF@@@YAHPA_WAAY0BAF@_WPB_W@Z 10015d07 f i common-user32:ConEmuCheckEx.obj
 0001:00014d34       ?FindConEmuBaseDir@@YAHAAY0BAF@_W0PAUHINSTANCE__@@@Z 10015d34 f   common-user32:ConEmuCheckEx.obj
 0001:000151e1       ?IsConEmuExeExist@@YAHPB_WAAY0BAF@_W@Z 100161e1 f   common-user32:ConEmuCheckEx.obj
 0001:0001525d       ??$swprintf_c@$0FA@@@YAHAAY0FA@_WPB_WZZ 1001625d f i common-user32:EmergencyShow.obj
 0001:00015273       ?CorrectConsolePos@@YAXPAUHWND__@@@Z 10016273 f   common-user32:EmergencyShow.obj
 0001:0001534c       ?EmergencyShow@@YAXPAUHWND__@@HH@Z 1001634c f   common-user32:EmergencyShow.obj
 0001:0001543f       ?EvaluateDefaultFontWidth@@YAHHPB_W@Z 1001643f f   common-user32:EmergencyShow.obj
 0001:00015531       ?SetUserFriendlyFont@@YAXPAUHWND__@@HH@Z 10016531 f   common-user32:EmergencyShow.obj
 0001:000158c2       ??0MSetter@@QAE@PAJ@Z      100168c2 f   common-user32:MSetter.obj
 0001:000158e3       ??1MSetter@@QAE@XZ         100168e3 f   common-user32:MSetter.obj
 0001:000158e8       ?Unlock@MSetter@@QAEXXZ    100168e8 f   common-user32:MSetter.obj
 0001:0001592b       ?IsDotsName@@YA_NPB_W@Z    1001692b f   common-user32:WFiles.obj
 0001:0001595b       ?SearchAppPaths@@YA_NPB_WAAUCEStr@@_NPAU1@@Z 1001695b f   common-user32:WFiles.obj
 0001:00015ced       ??1ConsoleSectionHelper@@QAE@XZ 10016ced f i common-user32:WConsoleEx.obj
 0001:00015d15       ?CreateConsoleData@ConsoleSectionHelper@@QAEPAUCONSOLE_INFO@@XZ 10016d15 f i common-user32:WConsoleEx.obj
 0001:00015d3a       ?CreateConsoleSection@ConsoleSectionHelper@@QAEPAXXZ 10016d3a f i common-user32:WConsoleEx.obj
 0001:00015d5b       ?GetConsoleSizeInfo@@YAXPAUCONSOLE_INFO@@@Z 10016d5b f   common-user32:WConsoleEx.obj
 0001:00015dcf       ?SetConsoleFontSizeTo@@YAXPAUHWND__@@HHPB_WGG@Z 10016dcf f   common-user32:WConsoleEx.obj
 0001:000160ee       ?SetConsoleInfo@@YAHPAUHWND__@@PAUCONSOLE_INFO@@@Z 100170ee f   common-user32:WConsoleEx.obj
 0001:000162b4       ?SetEnvVarExpanded@@YAXPB_W0@Z 100172b4 f   common-user32:WUser.obj
 0001:0001638f       ?UpdateComspec@@YAXPAUConEmuComspec@@_N@Z 1001738f f   common-user32:WUser.obj
 0001:000165de       ?apiShowWindow@@YA_NPAUHWND__@@H@Z 100175de f   common-user32:WUser.obj
 0001:000165f4       ?apiShowWindowAsync@@YA_NPAUHWND__@@H@Z 100175f4 f   common-user32:WUser.obj
 0001:0001660a       ?FindMonitorsWorkspace@@YGHPAUHMONITOR__@@PAUHDC__@@PAUtagRECT@@J@Z 1001760a f   common-user32:Monitors.obj
 0001:00016643       ?GetAllMonitorsWorkspace@@YA?AUtagRECT@@XZ 10017643 f   common-user32:Monitors.obj
 0001:00016693       @__security_check_cookie@4 10017693 f   LIBCMT:_secchk_.obj
 0001:000166a4       ??3@YAXPAXI@Z              100176a4 f   LIBCMT:delete_scalar_size.obj
 0001:000166b2       __EH_epilog3               100176b2 f   LIBCMT:ehprolg3.obj
 0001:000166c7       __EH_epilog3_GS            100176c7 f   LIBCMT:ehprolg3.obj
 0001:000166d8       __EH_prolog3               100176d8 f   LIBCMT:ehprolg3.obj
 0001:0001670c       __EH_prolog3_GS            1001770c f   LIBCMT:ehprolg3.obj
 0001:00016743       __EH_prolog3_catch         10017743 f   LIBCMT:ehprolg3.obj
 0001:00016780       __alloca_probe             10017780 f   LIBCMT:chkstk.obj
 0001:00016780       __chkstk                   10017780 f   LIBCMT:chkstk.obj
 0001:000167b0       __aullshr                  100177b0 f   LIBCMT:ullshr.obj
 0001:000167cf       ??_Gtype_info@@UAEPAXI@Z   100177cf f i LIBCMT:std_type_info_static.obj
 0001:000167cf       ??_Etype_info@@UAEPAXI@Z   100177cf f i LIBCMT:std_type_info_static.obj
 0001:00016905       __Init_thread_footer       10017905 f   LIBCMT:thread_safe_statics.obj
 0001:0001694f       __Init_thread_header       1001794f f   LIBCMT:thread_safe_statics.obj
 0001:000169a1       __Init_thread_notify       100179a1 f   LIBCMT:thread_safe_statics.obj
 0001:000169e2       __Init_thread_wait         100179e2 f   LIBCMT:thread_safe_statics.obj
 0001:00016d5c       __DllMainCRTStartup@12     10017d5c f   LIBCMT:dll_dllmain.obj
 0001:00016d80       __SEH_prolog4              10017d80 f   LIBCMT:_sehprolg4_.obj
 0001:00016dc6       __SEH_epilog4              10017dc6 f   LIBCMT:_sehprolg4_.obj
 0001:00016e1f       ___scrt_acquire_startup_lock 10017e1f f   LIBCMT:utility.obj
 0001:00016e54       ___scrt_dllmain_after_initialize_c 10017e54 f   LIBCMT:utility.obj
 0001:00016e7f       ___scrt_dllmain_before_initialize_c 10017e7f f   LIBCMT:utility.obj
 0001:00016e8d       ___scrt_dllmain_crt_thread_attach 10017e8d f   LIBCMT:utility.obj
 0001:00016eac       ___scrt_dllmain_crt_thread_detach 10017eac f   LIBCMT:utility.obj
 0001:00016eb9       ___scrt_dllmain_exception_filter 10017eb9 f   LIBCMT:utility.obj
 0001:00016eec       ___scrt_dllmain_uninitialize_c 10017eec f   LIBCMT:utility.obj
 0001:00016f0f       ___scrt_dllmain_uninitialize_critical 10017f0f f   LIBCMT:utility.obj
 0001:00016f1c       ___scrt_initialize_crt     10017f1c f   LIBCMT:utility.obj
 0001:00016f55       ___scrt_initialize_onexit_tables 10017f55 f   LIBCMT:utility.obj
 0001:00016fff       ___scrt_is_nonwritable_in_current_image 10017fff f   LIBCMT:utility.obj
 0001:00017089       ___scrt_release_startup_lock 10018089 f   LIBCMT:utility.obj
 0001:000170a6       ___scrt_uninitialize_crt   100180a6 f   LIBCMT:utility.obj
 0001:000170ce       __onexit                   100180ce f   LIBCMT:utility.obj
 0001:00017109       _atexit                    10018109 f   LIBCMT:utility.obj
 0001:0001711e       ___raise_securityfailure   1001811e f   LIBCMT:gs_report.obj
 0001:00017146       ___report_gsfailure        10018146 f   LIBCMT:gs_report.obj
 0001:00017241       ___scrt_fastfail           10018241 f   LIBCMT:utility_desktop.obj
 0001:0001735d       __crt_debugger_hook        1001835d f   LIBCMT:utility_desktop.obj
 0001:00017365       @_guard_check_icall@4      10018365 f i LIBCMT:checkcfg.obj
 0001:000173ba       ___security_init_cookie    100183ba f   LIBCMT:gs_support.obj
 0001:00017405       ?__scrt_initialize_type_info@@YAXXZ 10018405 f   LIBCMT:tncleanup.obj
 0001:00017411       ?__scrt_uninitialize_type_info@@YAXXZ 10018411 f   LIBCMT:tncleanup.obj
 0001:0001741d       ___local_stdio_scanf_options 1001841d f i LIBCMT:default_local_stdio_options.obj
 0001:00017423       ___scrt_initialize_default_local_stdio_options 10018423 f   LIBCMT:default_local_stdio_options.obj
 0001:00017440       ___scrt_get_dyn_tls_init_callback 10018440 f   LIBCMT:dyn_tls_init.obj
 0001:00017446       __RTC_Initialize           10018446 f   LIBCMT:_initsect_.obj
 0001:00017471       __RTC_Terminate            10018471 f   LIBCMT:_initsect_.obj
 0001:0001749c       ___isa_available_init      1001849c f   LIBCMT:_cpu_disp_.obj
 0001:00017635       ?GetMacroArea@CPluginAnsi@@UAEHXZ 10018635 f   ConEmuPluginA.obj
 0001:00017635       __get_startup_argv_mode    10018635 f   LIBCMT:argv_mode.obj
 0001:00017639       ___scrt_is_ucrt_dll_in_use 10018639 f   LIBCMT:ucrt_detection.obj
 0001:00017645       ?_CallCatchBlock2@@YAPAXPAUEHRegistrationNode@@PBU_s_FuncInfo@@PAXHK@Z 10018645 f   libvcruntime:trnsctrl.obj
 0001:000176a5       ?_CallSETranslator@@YAHPAUEHExceptionRecord@@PAUEHRegistrationNode@@PAX2PBU_s_FuncInfo@@H1@Z 100186a5 f   libvcruntime:trnsctrl.obj
 0001:00017782       ?_GetRangeOfTrysToCheck@@YAPBU_s_TryBlockMapEntry@@PBU_s_FuncInfo@@HHPAI1@Z 10018782 f   libvcruntime:trnsctrl.obj
 0001:000177fa       ?_JumpToContinuation@@YGXPAXPAUEHRegistrationNode@@@Z 100187fa f   libvcruntime:trnsctrl.obj
 0001:0001782c       ?_UnwindNestedFrames@@YGXPAUEHRegistrationNode@@PAUEHExceptionRecord@@@Z 1001882c f   libvcruntime:trnsctrl.obj
 0001:00017881       __CatchGuardHandler        10018881 f   libvcruntime:trnsctrl.obj
 0001:000178b2       __CreateFrameInfo          100188b2 f   libvcruntime:trnsctrl.obj
 0001:000178d6       __FindAndUnlinkFrame       100188d6 f   libvcruntime:trnsctrl.obj
 0001:0001791b       __TranslatorGuardHandler   1001891b f   libvcruntime:trnsctrl.obj
 0001:000179ba       ___CxxFrameHandler3        100189ba f   libvcruntime:trnsctrl.obj
 0001:000179f0       _memmove                   100189f0 f   libvcruntime:memmove.obj
 0001:00017f64       _wcschr                    10018f64 f   libvcruntime:wcschr.obj
 0001:0001802e       _wcsstr                    1001902e f   libvcruntime:wcsstr.obj
 0001:000182c0       _memset                    100192c0 f   libvcruntime:memset.obj
 0001:0001841a       ___DestructExceptionObject 1001941a f   libvcruntime:ehhelpers.obj
 0001:000184af       ?_CallMemberFunction0@@YGXQAX0@Z 100194af f i libvcruntime:ehhelpers.obj
 0001:000184bc       __IsExceptionObjectToBeDestroyed 100194bc f   libvcruntime:ehhelpers.obj
 0001:000184e2       ___AdjustPointer           100194e2 f   libvcruntime:ehhelpers.obj
 0001:00018507       ___FrameUnwindFilter       10019507 f   libvcruntime:ehhelpers.obj
 0001:0001854c       ___std_terminate           1001954c f   libvcruntime:ehhelpers.obj
 0001:00018551       __purecall                 10019551 f   libvcruntime:purevirt.obj
 0001:00018579       _wcsrchr                   10019579 f   libvcruntime:wcsrchr.obj
 0001:00018620       _memcpy                    10019620 f   libvcruntime:memcpy.obj
 0001:00018ba0       _strrchr                   10019ba0 f   libvcruntime:strrchr.obj
 0001:00018ce0       _strchr                    10019ce0 f   libvcruntime:strchr.obj
 0001:00018d4e       ___from_strstr_to_strchr   10019d4e     libvcruntime:strchr.obj
 0001:00018e50       __except_handler4          10019e50 f   libvcruntime:_chandler4_.obj
 0001:00018fad       ??$__crt_fast_encode_pointer@PAP6AXXZ@@YAPAP6AXXZQAP6AXXZ@Z 10019fad f i LIBCMT:utility.obj
 0001:00018fad       ??$__crt_fast_encode_pointer@PAX@@YAPAXQAX@Z 10019fad f i libvcruntime:winapi_downlevel.obj
 0001:00019117       ___vcrt_FlsAlloc           1001a117 f   libvcruntime:winapi_downlevel.obj
 0001:00019151       ___vcrt_FlsFree            1001a151 f   libvcruntime:winapi_downlevel.obj
 0001:0001918b       ___vcrt_FlsGetValue        1001a18b f   libvcruntime:winapi_downlevel.obj
 0001:000191c5       ___vcrt_FlsSetValue        1001a1c5 f   libvcruntime:winapi_downlevel.obj
 0001:00019202       ___vcrt_InitializeCriticalSectionEx 1001a202 f   libvcruntime:winapi_downlevel.obj
 0001:00019248       ___vcrt_initialize_winapi_thunks 1001a248 f   libvcruntime:winapi_downlevel.obj
 0001:00019282       ___vcrt_uninitialize_winapi_thunks 1001a282 f   libvcruntime:winapi_downlevel.obj
 0001:000192b4       ___vcrt_initialize         1001a2b4 f   libvcruntime:initialization.obj
 0001:000192dd       ___vcrt_thread_attach      1001a2dd f   libvcruntime:initialization.obj
 0001:000192e8       ___vcrt_thread_detach      1001a2e8 f   libvcruntime:initialization.obj
 0001:000192f3       ___vcrt_uninitialize       1001a2f3 f   libvcruntime:initialization.obj
 0001:00019312       ___vcrt_uninitialize_critical 1001a312 f   libvcruntime:initialization.obj
 0001:0001931a       ___std_type_info_compare   1001a31a f   libvcruntime:std_type_info.obj
 0001:00019356       ___std_type_info_destroy_list 1001a356 f   libvcruntime:std_type_info.obj
 0001:00019379       ___vcrt_freefls@4          1001a379 f   libvcruntime:per_thread_data.obj
 0001:00019395       ___vcrt_freeptd            1001a395 f   libvcruntime:per_thread_data.obj
 0001:000193d8       ___vcrt_getptd             1001a3d8 f   libvcruntime:per_thread_data.obj
 0001:000193e6       ___vcrt_getptd_noexit      1001a3e6 f   libvcruntime:per_thread_data.obj
 0001:00019478       ___vcrt_initialize_ptd     1001a478 f   libvcruntime:per_thread_data.obj
 0001:000194be       ___vcrt_uninitialize_ptd   1001a4be f   libvcruntime:per_thread_data.obj
 0001:000194e0       __CallSettingFrame@12      1001a4e0 f   libvcruntime:lowhelpr.obj
 0001:00019507       __NLG_Return               1001a507     libvcruntime:lowhelpr.obj
 0001:0001952c       ??0bad_exception@std@@QAE@ABV01@@Z 1001a52c f i libvcruntime:frame.obj
 0001:00019547       ??0bad_exception@std@@QAE@XZ 1001a547 f i libvcruntime:frame.obj
 0001:0001955f       ??0exception@std@@QAE@ABV01@@Z 1001a55f f i libvcruntime:frame.obj
 0001:0001958b       ??1bad_exception@std@@UAE@XZ 1001a58b f i libvcruntime:frame.obj
 0001:0001959c       ??_Gbad_exception@std@@UAEPAXI@Z 1001a59c f i libvcruntime:frame.obj
 0001:0001959c       ??_Eexception@std@@UAEPAXI@Z 1001a59c f i libvcruntime:frame.obj
 0001:0001959c       ??_Gexception@std@@UAEPAXI@Z 1001a59c f i libvcruntime:frame.obj
 0001:0001959c       ??_Ebad_exception@std@@UAEPAXI@Z 1001a59c f i libvcruntime:frame.obj
 0001:00019dd9       ?_CallMemberFunction1@@YGXQAX00@Z 1001add9 f i libvcruntime:frame.obj
 0001:00019de9       ?_CallMemberFunction2@@YGXQAX00H@Z 1001ade9 f i libvcruntime:frame.obj
 0001:00019dfc       ?what@exception@std@@UBEPBDXZ 1001adfc f i libvcruntime:frame.obj
 0001:00019e09       ___BuildCatchObject        1001ae09 f   libvcruntime:frame.obj
 0001:00019e98       ___BuildCatchObjectHelper  1001ae98 f   libvcruntime:frame.obj
 0001:00019fcb       ___FrameUnwindToState      1001afcb f   libvcruntime:frame.obj
 0001:0001a098       ___InternalCxxFrameHandler 1001b098 f   libvcruntime:frame.obj
 0001:0001a194       ___TypeMatch               1001b194 f   libvcruntime:frame.obj
 0001:0001a222       ___except_validate_context_record 1001b222 f   libvcruntime:jbcxrval.obj
 0001:0001a252       ___except_validate_jump_buffer 1001b252 f   libvcruntime:jbcxrval.obj
 0001:0001a27f       ___vcrt_initialize_pure_virtual_call_handler 1001b27f f   libvcruntime:purevirt_data.obj
 0001:0001a2a0       __local_unwind4            1001b2a0 f   libvcruntime:_exsup4_.obj
 0001:0001a378       __seh_longjmp_unwind4@4    1001b378 f   libvcruntime:_exsup4_.obj
 0001:0001a3a0       @_EH4_CallFilterFunc@8     1001b3a0 f   libvcruntime:_exsup4_.obj
 0001:0001a3b8       @_EH4_TransferToHandler@8  1001b3b8 f   libvcruntime:_exsup4_.obj
 0001:0001a3d4       @_EH4_GlobalUnwind2@8      1001b3d4 f   libvcruntime:_exsup4_.obj
 0001:0001a3f0       @_EH4_LocalUnwind@16       1001b3f0 f   libvcruntime:_exsup4_.obj
 0001:0001a407       ___vcrt_initialize_locks   1001b407 f   libvcruntime:locks.obj
 0001:0001a443       ___vcrt_uninitialize_locks 1001b443 f   libvcruntime:locks.obj
 0001:0001a480       __global_unwind2           1001b480 f   libvcruntime:_exsup_.obj
 0001:0001a4e6       __local_unwind2            1001b4e6 f   libvcruntime:_exsup_.obj
 0001:0001a56a       __abnormal_termination     1001b56a f   libvcruntime:_exsup_.obj
 0001:0001a590       __NLG_Notify1              1001b590 f   libvcruntime:_exsup_.obj
 0001:0001a59c       __NLG_Notify               1001b59c f   libvcruntime:_exsup_.obj
 0001:0001a5b3       __NLG_Dispatch2            1001b5b3     libvcruntime:_exsup_.obj
 0001:0001a5b3       __NLG_Dispatch             1001b5b3     libvcruntime:_exsup_.obj
 0001:0001a5bb       __NLG_Call                 1001b5bb f   libvcruntime:_exsup_.obj
 0001:0001a5bd       __NLG_Return2              1001b5bd     libvcruntime:_exsup_.obj
 0001:0001a5be       _unexpected                1001b5be f   libvcruntime:unexpected.obj
 0001:0001a5da       ___std_exception_copy      1001b5da f   libvcruntime:std_exception.obj
 0001:0001a63d       ___std_exception_destroy   1001b63d f   libvcruntime:std_exception.obj
 0001:0001a65c       __CxxThrowException@8      1001b65c f   libvcruntime:throw.obj
 0001:0001a9cb       ??$count@D@formatting_buffer@__crt_stdio_output@@QBEIXZ 1001b9cb f i libucrt:output.obj
 0001:0001a9e3       ??$ensure_buffer_is_big_enough@D@formatting_buffer@__crt_stdio_output@@QAE_NI@Z 1001b9e3 f i libucrt:output.obj
 0001:0001aa69       ??$is_wide_character_specifier@D@__crt_stdio_output@@YA_N_KDW4length_modifier@0@@Z 1001ba69 f i libucrt:output.obj
 0001:0001aaa9       ??$is_wide_character_specifier@_W@__crt_stdio_output@@YA_N_K_WW4length_modifier@0@@Z 1001baa9 f i libucrt:output.obj
 0001:0001aaf8       ??$scratch_data@D@formatting_buffer@__crt_stdio_output@@QAEPADXZ 1001baf8 f i libucrt:output.obj
 0001:0001ab16       ??$type_case_integer_parse_into_buffer@I@?$output_processor@_WV?$string_output_adapter@_W@__crt_stdio_output@@V?$standard_base@_WV?$string_output_adapter@_W@__crt_stdio_output@@@2@@__crt_stdio_output@@AAEXII_N@Z 1001bb16 f i libucrt:output.obj
 0001:0001ab16       ??$type_case_integer_parse_into_buffer@I@?$output_processor@DV?$string_output_adapter@D@__crt_stdio_output@@V?$standard_base@DV?$string_output_adapter@D@__crt_stdio_output@@@2@@__crt_stdio_output@@AAEXII_N@Z 1001bb16 f i libucrt:output.obj
 0001:0001ab8b       ??$type_case_integer_parse_into_buffer@_K@?$output_processor@DV?$string_output_adapter@D@__crt_stdio_output@@V?$standard_base@DV?$string_output_adapter@D@__crt_stdio_output@@@2@@__crt_stdio_output@@AAEX_KI_N@Z 1001bb8b f i libucrt:output.obj
 0001:0001ab8b       ??$type_case_integer_parse_into_buffer@_K@?$output_processor@_WV?$string_output_adapter@_W@__crt_stdio_output@@V?$standard_base@_WV?$string_output_adapter@_W@__crt_stdio_output@@@2@@__crt_stdio_output@@AAEX_KI_N@Z 1001bb8b f i libucrt:output.obj
 0001:0001ac13       ??$write_multiple_characters@V?$string_output_adapter@D@__crt_stdio_output@@D@__crt_stdio_output@@YAXABV?$string_output_adapter@D@0@DHQAH@Z 1001bc13 f i libucrt:output.obj
 0001:0001ac3f       ??$write_multiple_characters@V?$string_output_adapter@_W@__crt_stdio_output@@D@__crt_stdio_output@@YAXABV?$string_output_adapter@_W@0@DHQAH@Z 1001bc3f f i libucrt:output.obj
 0001:0001ac70       ??0?$common_data@D@__crt_stdio_output@@IAE@XZ 1001bc70 f i libucrt:output.obj
 0001:0001acb7       ??0?$common_data@_W@__crt_stdio_output@@IAE@XZ 1001bcb7 f i libucrt:output.obj
 0001:0001ad03       ??0?$output_adapter_data@DV?$string_output_adapter@D@__crt_stdio_output@@@__crt_stdio_output@@IAE@ABV?$string_output_adapter@D@1@_KQBDQAU__crt_locale_pointers@@QAD@Z 1001bd03 f i libucrt:output.obj
 0001:0001ad3f       ??0?$output_adapter_data@_WV?$string_output_adapter@_W@__crt_stdio_output@@@__crt_stdio_output@@IAE@ABV?$string_output_adapter@_W@1@_KQB_WQAU__crt_locale_pointers@@QAD@Z 1001bd3f f i libucrt:output.obj
 0001:0001ad7b       ??0?$output_processor@DV?$string_output_adapter@D@__crt_stdio_output@@V?$standard_base@DV?$string_output_adapter@D@__crt_stdio_output@@@2@@__crt_stdio_output@@QAE@ABV?$string_output_adapter@D@1@_KQBDQAU__crt_locale_pointers@@QAD@Z 1001bd7b f i libucrt:output.obj
 0001:0001adb0       ??0?$output_processor@_WV?$string_output_adapter@_W@__crt_stdio_output@@V?$standard_base@_WV?$string_output_adapter@_W@__crt_stdio_output@@@2@@__crt_stdio_output@@QAE@ABV?$string_output_adapter@_W@1@_KQB_WQAU__crt_locale_pointers@@QAD@Z 1001bdb0 f i libucrt:output.obj
 0001:0001ade5       ??0_LocaleUpdate@@QAE@QAU__crt_locale_pointers@@@Z 1001bde5 f i libucrt:output.obj
 0001:0001ae68       ??1formatting_buffer@__crt_stdio_output@@QAE@XZ 1001be68 f i libucrt:output.obj
 0001:0001ae82       ??4?$__crt_unique_heap_ptr@DU__crt_internal_free_policy@@@@QAEAAV0@$$QAV0@@Z 1001be82 f i libucrt:output.obj
 0001:0001aea6       ?crop_zeroes@__crt_stdio_output@@YAXPADQAU__crt_locale_pointers@@@Z 1001bea6 f i libucrt:output.obj
 0001:0001aefd       ?find_next_state@?$output_processor@DV?$string_output_adapter@D@__crt_stdio_output@@V?$standard_base@DV?$string_output_adapter@D@__crt_stdio_output@@@2@@__crt_stdio_output@@ABE?AW4state@2@DW432@@Z 1001befd f i libucrt:output.obj
 0001:0001af2f       ?find_next_state@?$output_processor@_WV?$string_output_adapter@_W@__crt_stdio_output@@V?$standard_base@_WV?$string_output_adapter@_W@__crt_stdio_output@@@2@@__crt_stdio_output@@ABE?AW4state@2@_WW432@@Z 1001bf2f f i libucrt:output.obj
 0001:0001af63       ?force_decimal_point@__crt_stdio_output@@YAXPADQAU__crt_locale_pointers@@@Z 1001bf63 f i libucrt:output.obj
 0001:0001afbf       ?parse_int_from_format_string@?$output_processor@DV?$string_output_adapter@D@__crt_stdio_output@@V?$standard_base@DV?$string_output_adapter@D@__crt_stdio_output@@@2@@__crt_stdio_output@@AAE_NQAH@Z 1001bfbf f i libucrt:output.obj
 0001:0001b01b       ?parse_int_from_format_string@?$output_processor@_WV?$string_output_adapter@_W@__crt_stdio_output@@V?$standard_base@_WV?$string_output_adapter@_W@__crt_stdio_output@@@2@@__crt_stdio_output@@AAE_NQAH@Z 1001c01b f i libucrt:output.obj
 0001:0001b079       ?process@?$output_processor@DV?$string_output_adapter@D@__crt_stdio_output@@V?$standard_base@DV?$string_output_adapter@D@__crt_stdio_output@@@2@@__crt_stdio_output@@QAEHXZ 1001c079 f i libucrt:output.obj
 0001:0001b195       ?process@?$output_processor@_WV?$string_output_adapter@_W@__crt_stdio_output@@V?$standard_base@_WV?$string_output_adapter@_W@__crt_stdio_output@@@2@@__crt_stdio_output@@QAEHXZ 1001c195 f i libucrt:output.obj
 0001:0001b2b5       ?state_case_flag@?$output_processor@DV?$string_output_adapter@D@__crt_stdio_output@@V?$standard_base@DV?$string_output_adapter@D@__crt_stdio_output@@@2@@__crt_stdio_output@@AAE_NXZ 1001c2b5 f i libucrt:output.obj
 0001:0001b2f2       ?state_case_flag@?$output_processor@_WV?$string_output_adapter@_W@__crt_stdio_output@@V?$standard_base@_WV?$string_output_adapter@_W@__crt_stdio_output@@@2@@__crt_stdio_output@@AAE_NXZ 1001c2f2 f i libucrt:output.obj
 0001:0001b32f       ?state_case_normal@?$output_processor@DV?$string_output_adapter@D@__crt_stdio_output@@V?$standard_base@DV?$string_output_adapter@D@__crt_stdio_output@@@2@@__crt_stdio_output@@AAE_NXZ 1001c32f f i libucrt:output.obj
 0001:0001b34e       ?state_case_normal@?$output_processor@_WV?$string_output_adapter@_W@__crt_stdio_output@@V?$standard_base@_WV?$string_output_adapter@_W@__crt_stdio_output@@@2@@__crt_stdio_output@@AAE_NXZ 1001c34e f i libucrt:output.obj
 0001:0001b36d       ?state_case_normal_common@?$output_processor@DV?$string_output_adapter@D@__crt_stdio_output@@V?$standard_base@DV?$string_output_adapter@D@__crt_stdio_output@@@2@@__crt_stdio_output@@AAE_NXZ 1001c36d f i libucrt:output.obj
 0001:0001b397       ?state_case_normal_common@?$output_processor@_WV?$string_output_adapter@_W@__crt_stdio_output@@V?$standard_base@_WV?$string_output_adapter@_W@__crt_stdio_output@@@2@@__crt_stdio_output@@AAE_NXZ 1001c397 f i libucrt:output.obj
 0001:0001b3b2       ?state_case_normal_tchar@?$output_processor@DV?$string_output_adapter@D@__crt_stdio_output@@V?$standard_base@DV?$string_output_adapter@D@__crt_stdio_output@@@2@@__crt_stdio_output@@AAE_ND@Z 1001c3b2 f i libucrt:output.obj
 0001:0001b413       ?state_case_precision@?$output_processor@DV?$string_output_adapter@D@__crt_stdio_output@@V?$standard_base@DV?$string_output_adapter@D@__crt_stdio_output@@@2@@__crt_stdio_output@@AAE_NXZ 1001c413 f i libucrt:output.obj
 0001:0001b43b       ?state_case_precision@?$output_processor@_WV?$string_output_adapter@_W@__crt_stdio_output@@V?$standard_base@_WV?$string_output_adapter@_W@__crt_stdio_output@@@2@@__crt_stdio_output@@AAE_NXZ 1001c43b f i libucrt:output.obj
 0001:0001b464       ?state_case_size@?$output_processor@DV?$string_output_adapter@D@__crt_stdio_output@@V?$standard_base@DV?$string_output_adapter@D@__crt_stdio_output@@@2@@__crt_stdio_output@@AAE_NXZ 1001c464 f i libucrt:output.obj
 0001:0001b5cd       ?state_case_size@?$output_processor@_WV?$string_output_adapter@_W@__crt_stdio_output@@V?$standard_base@_WV?$string_output_adapter@_W@__crt_stdio_output@@@2@@__crt_stdio_output@@AAE_NXZ 1001c5cd f i libucrt:output.obj
 0001:0001b749       ?state_case_type@?$output_processor@DV?$string_output_adapter@D@__crt_stdio_output@@V?$standard_base@DV?$string_output_adapter@D@__crt_stdio_output@@@2@@__crt_stdio_output@@AAE_NXZ 1001c749 f i libucrt:output.obj
 0001:0001b978       ?state_case_type@?$output_processor@_WV?$string_output_adapter@_W@__crt_stdio_output@@V?$standard_base@_WV?$string_output_adapter@_W@__crt_stdio_output@@@2@@__crt_stdio_output@@AAE_NXZ 1001c978 f i libucrt:output.obj
 0001:0001bbd5       ?state_case_width@?$output_processor@DV?$string_output_adapter@D@__crt_stdio_output@@V?$standard_base@DV?$string_output_adapter@D@__crt_stdio_output@@@2@@__crt_stdio_output@@AAE_NXZ 1001cbd5 f i libucrt:output.obj
 0001:0001bc00       ?state_case_width@?$output_processor@_WV?$string_output_adapter@_W@__crt_stdio_output@@V?$standard_base@_WV?$string_output_adapter@_W@__crt_stdio_output@@@2@@__crt_stdio_output@@AAE_NXZ 1001cc00 f i libucrt:output.obj
 0001:0001bc2c       ?to_integer_size@__crt_stdio_output@@YAIW4length_modifier@1@@Z 1001cc2c f i libucrt:output.obj
 0001:0001bc88       ?type_case_Z@?$output_processor@DV?$string_output_adapter@D@__crt_stdio_output@@V?$standard_base@DV?$string_output_adapter@D@__crt_stdio_output@@@2@@__crt_stdio_output@@AAE_NXZ 1001cc88 f i libucrt:output.obj
 0001:0001bceb       ?type_case_Z@?$output_processor@_WV?$string_output_adapter@_W@__crt_stdio_output@@V?$standard_base@_WV?$string_output_adapter@_W@__crt_stdio_output@@@2@@__crt_stdio_output@@AAE_NXZ 1001cceb f i libucrt:output.obj
 0001:0001bd4e       ?type_case_a@?$output_processor@DV?$string_output_adapter@D@__crt_stdio_output@@V?$standard_base@DV?$string_output_adapter@D@__crt_stdio_output@@@2@@__crt_stdio_output@@AAE_NXZ 1001cd4e f i libucrt:output.obj
 0001:0001bea8       ?type_case_a@?$output_processor@_WV?$string_output_adapter@_W@__crt_stdio_output@@V?$standard_base@_WV?$string_output_adapter@_W@__crt_stdio_output@@@2@@__crt_stdio_output@@AAE_NXZ 1001cea8 f i libucrt:output.obj
 0001:0001c01a       ?type_case_c_tchar@?$output_processor@DV?$string_output_adapter@D@__crt_stdio_output@@V?$standard_base@DV?$string_output_adapter@D@__crt_stdio_output@@@2@@__crt_stdio_output@@AAE_ND@Z 1001d01a f i libucrt:output.obj
 0001:0001c0aa       ?type_case_c_tchar@?$output_processor@_WV?$string_output_adapter@_W@__crt_stdio_output@@V?$standard_base@_WV?$string_output_adapter@_W@__crt_stdio_output@@@2@@__crt_stdio_output@@AAE_N_W@Z 1001d0aa f i libucrt:output.obj
 0001:0001c142       ?type_case_integer@?$output_processor@_WV?$string_output_adapter@_W@__crt_stdio_output@@V?$standard_base@_WV?$string_output_adapter@_W@__crt_stdio_output@@@2@@__crt_stdio_output@@AAE_NI_N@Z 1001d142 f i libucrt:output.obj
 0001:0001c142       ?type_case_integer@?$output_processor@DV?$string_output_adapter@D@__crt_stdio_output@@V?$standard_base@DV?$string_output_adapter@D@__crt_stdio_output@@@2@@__crt_stdio_output@@AAE_NI_N@Z 1001d142 f i libucrt:output.obj
 0001:0001c28c       ?type_case_n@?$output_processor@DV?$string_output_adapter@D@__crt_stdio_output@@V?$standard_base@DV?$string_output_adapter@D@__crt_stdio_output@@@2@@__crt_stdio_output@@AAE_NXZ 1001d28c f i libucrt:output.obj
 0001:0001c28c       ?type_case_n@?$output_processor@_WV?$string_output_adapter@_W@__crt_stdio_output@@V?$standard_base@_WV?$string_output_adapter@_W@__crt_stdio_output@@@2@@__crt_stdio_output@@AAE_NXZ 1001d28c f i libucrt:output.obj
 0001:0001c300       ?type_case_o@?$output_processor@_WV?$string_output_adapter@_W@__crt_stdio_output@@V?$standard_base@_WV?$string_output_adapter@_W@__crt_stdio_output@@@2@@__crt_stdio_output@@AAE_NXZ 1001d300 f i libucrt:output.obj
 0001:0001c300       ?type_case_o@?$output_processor@DV?$string_output_adapter@D@__crt_stdio_output@@V?$standard_base@DV?$string_output_adapter@D@__crt_stdio_output@@@2@@__crt_stdio_output@@AAE_NXZ 1001d300 f i libucrt:output.obj
 0001:0001c31f       ?type_case_p@?$output_processor@_WV?$string_output_adapter@_W@__crt_stdio_output@@V?$standard_base@_WV?$string_output_adapter@_W@__crt_stdio_output@@@2@@__crt_stdio_output@@AAE_NXZ 1001d31f f i libucrt:output.obj
 0001:0001c31f       ?type_case_p@?$output_processor@DV?$string_output_adapter@D@__crt_stdio_output@@V?$standard_base@DV?$string_output_adapter@D@__crt_stdio_output@@@2@@__crt_stdio_output@@AAE_NXZ 1001d31f f i libucrt:output.obj
 0001:0001c337       ?type_case_s@?$output_processor@DV?$string_output_adapter@D@__crt_stdio_output@@V?$standard_base@DV?$string_output_adapter@D@__crt_stdio_output@@@2@@__crt_stdio_output@@AAE_NXZ 1001d337 f i libucrt:output.obj
 0001:0001c3aa       ?type_case_s@?$output_processor@_WV?$string_output_adapter@_W@__crt_stdio_output@@V?$standard_base@_WV?$string_output_adapter@_W@__crt_stdio_output@@@2@@__crt_stdio_output@@AAE_NXZ 1001d3aa f i libucrt:output.obj
 0001:0001c41e       ?type_case_s_compute_narrow_string_length@?$output_processor@_WV?$string_output_adapter@_W@__crt_stdio_output@@V?$standard_base@_WV?$string_output_adapter@_W@__crt_stdio_output@@@2@@__crt_stdio_output@@ABEHH_W@Z 1001d41e f i libucrt:output.obj
 0001:0001c45e       ?validate@?$c_string_character_source@_W@__crt_strtox@@QBE_NXZ 1001d45e f i libucrt:strtox.obj
 0001:0001c45e       ?validate@?$c_string_character_source@D@__crt_strtox@@QBE_NXZ 1001d45e f i libucrt:strtox.obj
 0001:0001c45e       ?validate@?$string_output_adapter@D@__crt_stdio_output@@QBE_NXZ 1001d45e f i libucrt:output.obj
 0001:0001c45e       ?validate@?$string_output_adapter@_W@__crt_stdio_output@@QBE_NXZ 1001d45e f i libucrt:output.obj
 0001:0001c479       ?write_character@?$string_output_adapter@D@__crt_stdio_output@@QBE_NDQAH@Z 1001d479 f i libucrt:output.obj
 0001:0001c4bb       ?write_character@?$string_output_adapter@_W@__crt_stdio_output@@QBE_N_WQAH@Z 1001d4bb f i libucrt:output.obj
 0001:0001c500       ?write_stored_string_tchar@?$output_processor@DV?$string_output_adapter@D@__crt_stdio_output@@V?$standard_base@DV?$string_output_adapter@D@__crt_stdio_output@@@2@@__crt_stdio_output@@AAE_ND@Z 1001d500 f i libucrt:output.obj
 0001:0001c5a7       ?write_stored_string_tchar@?$output_processor@_WV?$string_output_adapter@_W@__crt_stdio_output@@V?$standard_base@_WV?$string_output_adapter@_W@__crt_stdio_output@@@2@@__crt_stdio_output@@AAE_N_W@Z 1001d5a7 f i libucrt:output.obj
 0001:0001c632       ?write_string@?$string_output_adapter@D@__crt_stdio_output@@QBEXQBDHQAH1@Z 1001d632 f i libucrt:output.obj
 0001:0001c6c5       ?write_string@?$string_output_adapter@_W@__crt_stdio_output@@QBEXQB_WHQAH1@Z 1001d6c5 f i libucrt:output.obj
 0001:0001c75f       ___stdio_common_vsprintf   1001d75f f   libucrt:output.obj
 0001:0001c783       ___stdio_common_vswprintf  1001d783 f   libucrt:output.obj
 0001:0001c7a7       _wcsncmp                   1001d7a7 f   libucrt:wcsncmp.obj
 0001:0001c7e1       ??$is_overflow_condition@K@__crt_strtox@@YA_NIK@Z 1001d7e1 f i libucrt:strtox.obj
 0001:0001c814       ??$make_c_string_character_source@DPAPAD@__crt_strtox@@YA?AV?$c_string_character_source@D@0@QBDQAPAD@Z 1001d814 f i libucrt:strtox.obj
 0001:0001c814       ??$make_c_string_character_source@_WPAPA_W@__crt_strtox@@YA?AV?$c_string_character_source@_W@0@QB_WQAPA_W@Z 1001d814 f i libucrt:strtox.obj
 0001:0001c82f       ??$parse_integer@KV?$c_string_character_source@D@__crt_strtox@@@__crt_strtox@@YAKQAU__crt_locale_pointers@@V?$c_string_character_source@D@0@H_N@Z 1001d82f f i libucrt:strtox.obj
 0001:0001ca57       ??$parse_integer@KV?$c_string_character_source@_W@__crt_strtox@@@__crt_strtox@@YAKQAU__crt_locale_pointers@@V?$c_string_character_source@_W@0@H_N@Z 1001da57 f i libucrt:strtox.obj
 0001:0001d13c       ?unget@?$c_string_character_source@D@__crt_strtox@@QAEXD@Z 1001e13c f i libucrt:strtox.obj
 0001:0001d164       ?unget@?$c_string_character_source@_W@__crt_strtox@@QAEX_W@Z 1001e164 f i libucrt:strtox.obj
 0001:0001d190       __chvalidchk_l             1001e190 f i libucrt:strtox.obj
 0001:0001d1ba       __ischartype_l             1001e1ba f i libucrt:strtox.obj
 0001:0001d1ed       _strtol                    1001e1ed f   libucrt:strtox.obj
 0001:0001d219       _wcstol                    1001e219 f   libucrt:strtox.obj
 0001:0001d245       __initterm                 1001e245 f   libucrt:initterm.obj
 0001:0001d2a1       __initterm_e               1001e2a1 f   libucrt:initterm.obj
 0001:0001d2e6       __seh_filter_dll           1001e2e6 f   libucrt:exception_filter.obj
 0001:0001d306       __seh_filter_exe           1001e306 f   libucrt:exception_filter.obj
 0001:0001d694       ___acrt_initialize_thread_local_exit_callback 1001e694 f   libucrt:exit.obj
 0001:0001d6a3       __cexit                    1001e6a3 f   libucrt:exit.obj
 0001:0001d6b2       __exit                     1001e6b2 f   libucrt:exit.obj
 0001:0001d6c8       __is_c_termination_complete 1001e6c8 f   libucrt:exit.obj
 0001:0001d967       ___acrt_allocate_buffer_for_argv 1001e967 f   libucrt:argv_parsing.obj
 0001:0001d9bc       __configure_narrow_argv    1001e9bc f   libucrt:argv_parsing.obj
 0001:0001db20       ??$uninitialize@A6AXAAPAPAD@Z@?$dual_state_global@PAPAD@__crt_state_management@@QAEXA6AXAAPAPAD@Z@Z 1001eb20 f i libucrt:environment_initialization.obj
 0001:0001db20       ??$uninitialize@A6AXAAPAPA_W@Z@?$dual_state_global@PAPA_W@__crt_state_management@@QAEXA6AXAAPAPA_W@Z@Z 1001eb20 f i libucrt:environment_initialization.obj
 0001:0001db96       ?initialize@?$dual_state_global@P6AHPAU_exception@@@Z@__crt_state_management@@QAEXQ6AHPAU_exception@@@Z@Z 1001eb96 f i libucrt:matherr.obj
 0001:0001db96       ?initialize@?$dual_state_global@P6AHI@Z@__crt_state_management@@QAEXQ6AHI@Z@Z 1001eb96 f i libucrt:new_handler.obj
 0001:0001db96       ?initialize@?$dual_state_global@PAU__crt_locale_data@@@__crt_state_management@@QAEXQAU__crt_locale_data@@@Z 1001eb96 f i libucrt:initialization.obj
 0001:0001db96       ?initialize@?$dual_state_global@P6AXH@Z@__crt_state_management@@QAEXQ6AXH@Z@Z 1001eb96 f i libucrt:signal.obj
 0001:0001db96       ?initialize@?$dual_state_global@P6AXPB_W00II@Z@__crt_state_management@@QAEXQ6AXPB_W00II@Z@Z 1001eb96 f i libucrt:invalid_parameter.obj
 0001:0001db96       ?initialize@?$dual_state_global@PAPAD@__crt_state_management@@QAEXQAPAD@Z 1001eb96 f i libucrt:environment_initialization.obj
 0001:0001dbc7       ___dcrt_uninitialize_environments_nolock 1001ebc7 f   libucrt:environment_initialization.obj
 0001:0001dbfe       __initialize_narrow_environment 1001ebfe f   libucrt:environment_initialization.obj
 0001:0001dc03       ??$?RV<lambda_800076c951b434888f4765a74a194fcc>@@AAV<lambda_4e60a939b0d047cfe11ddc22648dfba9>@@V<lambda_6dbb1268764f43b569ce7b67e331d33a>@@@?$__crt_seh_guarded_call@H@@QAEH$$QAV<lambda_800076c951b434888f4765a74a194fcc>@@AAV<lambda_4e60a939b0d047cfe11ddc22648dfba9>@@$$QAV<lambda_6dbb1268764f43b569ce7b67e331d33a>@@@Z 1001ec03 f i libucrt:onexit.obj
 0001:0001dc54       ??$?RV<lambda_995298e7d72eb4c2aab26c0585b3abe5>@@AAV<lambda_275893d493268fdec8709772e3fcec0e>@@V<lambda_293819299cbf9a7022e18b56a874bb5c>@@@?$__crt_seh_guarded_call@H@@QAEH$$QAV<lambda_995298e7d72eb4c2aab26c0585b3abe5>@@AAV<lambda_275893d493268fdec8709772e3fcec0e>@@$$QAV<lambda_293819299cbf9a7022e18b56a874bb5c>@@@Z 1001ec54 f i libucrt:onexit.obj
 0001:0001dca5       ??$__acrt_lock_and_call@V<lambda_275893d493268fdec8709772e3fcec0e>@@@@YAHW4__acrt_lock_id@@$$QAV<lambda_275893d493268fdec8709772e3fcec0e>@@@Z 1001eca5 f i libucrt:onexit.obj
 0001:0001dccd       ??$__acrt_lock_and_call@V<lambda_4e60a939b0d047cfe11ddc22648dfba9>@@@@YAHW4__acrt_lock_id@@$$QAV<lambda_4e60a939b0d047cfe11ddc22648dfba9>@@@Z 1001eccd f i libucrt:onexit.obj
 0001:0001dcf5       ??$__crt_fast_encode_pointer@P6AHXZ@@YAP6AHXZQ6AHXZ@Z 1001ecf5 f i libucrt:onexit.obj
 0001:0001df75       __crt_atexit               1001ef75 f   libucrt:onexit.obj
 0001:0001df8b       __execute_onexit_table     1001ef8b f   libucrt:onexit.obj
 0001:0001dfa8       __initialize_onexit_table  1001efa8 f   libucrt:onexit.obj
 0001:0001dfe5       __register_onexit_function 1001efe5 f   libucrt:onexit.obj
 0001:0001e03d       ___acrt_uninitialize_command_line 1001f03d f   libucrt:argv_data.obj
 0001:0001e0fd       ___acrt_initialize         1001f0fd f   libucrt:initialization.obj
 0001:0001e10f       ___acrt_thread_attach      1001f10f f   libucrt:initialization.obj
 0001:0001e11a       ___acrt_thread_detach      1001f11a f   libucrt:initialization.obj
 0001:0001e122       ___acrt_uninitialize       1001f122 f   libucrt:initialization.obj
 0001:0001e134       ___acrt_uninitialize_critical 1001f134 f   libucrt:initialization.obj
 0001:0001e146       _terminate                 1001f146 f   libucrt:terminate.obj
 0001:0001e182       _abort                     1001f182 f   libucrt:abort.obj
 0001:0001e1c5       __free_base                1001f1c5 f   libucrt:free_base.obj
 0001:0001e1ff       __malloc_base              1001f1ff f   libucrt:malloc_base.obj
 0001:0001e24d       _strcpy_s                  1001f24d f   libucrt:strcpy_s.obj
 0001:0001e2a7       __calloc_base              1001f2a7 f   libucrt:calloc_base.obj
 0001:0001e304       _free                      1001f304 f   libucrt:free.obj
 0001:0001e309       _malloc                    1001f309 f   libucrt:malloc.obj
 0001:0001e314       ___acrt_call_reportfault   1001f314 f   libucrt:invalid_parameter.obj
 0001:0001e44f       ___acrt_initialize_invalid_parameter_handler 1001f44f f   libucrt:invalid_parameter.obj
 0001:0001e463       __invalid_parameter        1001f463 f   libucrt:invalid_parameter.obj
 0001:0001e4de       __invalid_parameter_noinfo 1001f4de f   libucrt:invalid_parameter.obj
 0001:0001e4ee       __invoke_watson            1001f4ee f   libucrt:invalid_parameter.obj
 0001:0001e521       __isdigit_l                1001f521 f i libucrt:_ctype.obj
 0001:0001e559       _isdigit                   1001f559 f i libucrt:_ctype.obj
 0001:0001e6ed       __tolower_l                1001f6ed f   libucrt:tolower_toupper.obj
 0001:0001e707       _tolower                   1001f707 f   libucrt:tolower_toupper.obj
 0001:0001e737       ___acrt_errno_from_os_error 1001f737 f   libucrt:errno.obj
 0001:0001e77a       ___acrt_errno_map_os_error 1001f77a f   libucrt:errno.obj
 0001:0001e79d       ___doserrno                1001f79d f   libucrt:errno.obj
 0001:0001e7b0       __errno                    1001f7b0 f   libucrt:errno.obj
 0001:0001e7c3       __mbtowc_l                 1001f7c3 f   libucrt:mbtowc.obj
 0001:0001e8bd       _mbtowc                    1001f8bd f   libucrt:mbtowc.obj
 0001:0001e8d7       __wctomb_s_l               1001f8d7 f   libucrt:wctomb.obj
 0001:0001e9f8       _wctomb_s                  1001f9f8 f   libucrt:wctomb.obj
 0001:0001ea15       _strnlen                   1001fa15 f   libucrt:strnlen.obj
 0001:0001eb3c       _wcsnlen                   1001fb3c f   libucrt:strnlen.obj
 0001:0001ecf3       ??$?RV<lambda_3518db117f0e7cdb002338c5d3c47b6c>@@AAV<lambda_b2ea41f6bbb362cd97d94c6828d90b61>@@V<lambda_abdedf541bb04549bc734292b4a045d4>@@@?$__crt_seh_guarded_call@X@@QAEX$$QAV<lambda_3518db117f0e7cdb002338c5d3c47b6c>@@AAV<lambda_b2ea41f6bbb362cd97d94c6828d90b61>@@$$QAV<lambda_abdedf541bb04549bc734292b4a045d4>@@@Z 1001fcf3 f i libucrt:per_thread_data.obj
 0001:0001ed43       ??$?RV<lambda_51b6e8b1eb166f2a3faf91f424b38130>@@AAV<lambda_6250bd4b2a391816dd638c3bf72b0bcb>@@V<lambda_0b5a4a3e68152e1d9b943535f5f47bed>@@@?$__crt_seh_guarded_call@X@@QAEX$$QAV<lambda_51b6e8b1eb166f2a3faf91f424b38130>@@AAV<lambda_6250bd4b2a391816dd638c3bf72b0bcb>@@$$QAV<lambda_0b5a4a3e68152e1d9b943535f5f47bed>@@@Z 1001fd43 f i libucrt:per_thread_data.obj
 0001:0001eda4       ??$?RV<lambda_5b71d36f03204c0beab531769a5b5694>@@AAV<lambda_be2b3da3f62db62e9dad5dc70221a656>@@V<lambda_8f9ce462984622f9bf76b59e2aaaf805>@@@?$__crt_seh_guarded_call@X@@QAEX$$QAV<lambda_5b71d36f03204c0beab531769a5b5694>@@AAV<lambda_be2b3da3f62db62e9dad5dc70221a656>@@$$QAV<lambda_8f9ce462984622f9bf76b59e2aaaf805>@@@Z 1001fda4 f i libucrt:per_thread_data.obj
 0001:0001edef       ??$?RV<lambda_9df27f884b057bc3edfc946cb5b7cf47>@@AAV<lambda_e69574bed617af4e071282c136b37893>@@V<lambda_cc0d902bcbbeb830f749456577db4721>@@@?$__crt_seh_guarded_call@X@@QAEX$$QAV<lambda_9df27f884b057bc3edfc946cb5b7cf47>@@AAV<lambda_e69574bed617af4e071282c136b37893>@@$$QAV<lambda_cc0d902bcbbeb830f749456577db4721>@@@Z 1001fdef f i libucrt:per_thread_data.obj
 0001:0001ee37       ??$__acrt_lock_and_call@V<lambda_6250bd4b2a391816dd638c3bf72b0bcb>@@@@YAXW4__acrt_lock_id@@$$QAV<lambda_6250bd4b2a391816dd638c3bf72b0bcb>@@@Z 1001fe37 f i libucrt:per_thread_data.obj
 0001:0001ee5f       ??$__acrt_lock_and_call@V<lambda_b2ea41f6bbb362cd97d94c6828d90b61>@@@@YAXW4__acrt_lock_id@@$$QAV<lambda_b2ea41f6bbb362cd97d94c6828d90b61>@@@Z 1001fe5f f i libucrt:per_thread_data.obj
 0001:0001ee87       ??$__acrt_lock_and_call@V<lambda_be2b3da3f62db62e9dad5dc70221a656>@@@@YAXW4__acrt_lock_id@@$$QAV<lambda_be2b3da3f62db62e9dad5dc70221a656>@@@Z 1001fe87 f i libucrt:per_thread_data.obj
 0001:0001eeaf       ??$__acrt_lock_and_call@V<lambda_e69574bed617af4e071282c136b37893>@@@@YAXW4__acrt_lock_id@@$$QAV<lambda_e69574bed617af4e071282c136b37893>@@@Z 1001feaf f i libucrt:per_thread_data.obj
 0001:0001f065       ___acrt_freeptd            10020065 f   libucrt:per_thread_data.obj
 0001:0001f091       ___acrt_getptd             10020091 f   libucrt:per_thread_data.obj
 0001:0001f115       ___acrt_getptd_noexit      10020115 f   libucrt:per_thread_data.obj
 0001:0001f19a       ___acrt_initialize_ptd     1002019a f   libucrt:per_thread_data.obj
 0001:0001f1c6       ___acrt_uninitialize_ptd   100201c6 f   libucrt:per_thread_data.obj
 0001:0001f1e0       ___acrt_update_locale_info 100201e0 f   libucrt:locale_update.obj
 0001:0001f20d       ___acrt_update_multibyte_info 1002020d f   libucrt:locale_update.obj
 0001:0001f23a       ?__acrt_fp_classify@@YA?AW4__acrt_fp_class@@ABN@Z 1002023a f i libucrt:cvt.obj
 0001:0001f2a6       ?__acrt_fp_is_negative@@YA_NABN@Z 100202a6 f i libucrt:cvt.obj
 0001:0001fb05       ___acrt_fp_format          10020b05 f   libucrt:cvt.obj
 0001:0001fc4f       __fileno                   10020c4f f   libucrt:fileno.obj
 0001:0001fc75       ___acrt_initialize_stdio   10020c75 f   libucrt:_file.obj
 0001:0001fd3d       ___acrt_uninitialize_stdio 10020d3d f   libucrt:_file.obj
 0001:0001fd89       __lock_file                10020d89 f   libucrt:_file.obj
 0001:0001fd9d       __unlock_file              10020d9d f   libucrt:_file.obj
 0001:0001fdb1       __get_printf_count_output  10020db1 f   libucrt:printf_count_output.obj
 0001:0001fdc6       ___acrt_set_locale_changed 10020dc6 f   libucrt:wsetlocale.obj
 0001:0001fdd1       ___acrt_uninitialize_locale 10020dd1 f   libucrt:wsetlocale.obj
 0001:0001ff8f       ___acrt_initialize_lowio   10020f8f f   libucrt:ioinit.obj
 0001:0001ffe5       ___acrt_uninitialize_lowio 10020fe5 f   libucrt:ioinit.obj
 0001:00020011       ___pctype_func             10021011 f   libucrt:ctype.obj
 0001:00020037       _iswctype                  10021037 f   libucrt:iswctype.obj
 0001:00020096       __isctype_l                10021096 f   libucrt:isctype.obj
 0001:00020168       ___acrt_initialize_locks   10021168 f   libucrt:locks.obj
 0001:000201a9       ___acrt_lock               100211a9 f   libucrt:locks.obj
 0001:000201c0       ___acrt_uninitialize_locks 100211c0 f   libucrt:locks.obj
 0001:000201f1       ___acrt_unlock             100211f1 f   libucrt:locks.obj
 0001:0002031f       ___acrt_FlsAlloc@4         1002131f f   libucrt:winapi_thunks.obj
 0001:00020375       ___acrt_FlsFree@4          10021375 f   libucrt:winapi_thunks.obj
 0001:000203cb       ___acrt_FlsGetValue@4      100213cb f   libucrt:winapi_thunks.obj
 0001:00020421       ___acrt_FlsSetValue@8      10021421 f   libucrt:winapi_thunks.obj
 0001:0002047a       ___acrt_InitializeCriticalSectionEx@12 1002147a f   libucrt:winapi_thunks.obj
 0001:000204dc       ___acrt_LCMapStringEx@36   100214dc f   libucrt:winapi_thunks.obj
 0001:00020564       ___acrt_LocaleNameToLCID@8 10021564 f   libucrt:winapi_thunks.obj
 0001:000205c0       ___acrt_initialize_winapi_thunks 100215c0 f   libucrt:winapi_thunks.obj
 0001:000205e6       ___acrt_is_packaged_app    100215e6 f   libucrt:winapi_thunks.obj
 0001:0002066d       ___acrt_uninitialize_winapi_thunks 1002166d f   libucrt:winapi_thunks.obj
 0001:00020a65       ??1?$argument_list@D@?A0xb0e4b824@@QAE@XZ 10021a65 f i libucrt:argv_wildcards.obj
 0001:00020a8a       ?append@?$argument_list@D@?A0xb0e4b824@@QAEHQAD@Z 10021a8a f i libucrt:argv_wildcards.obj
 0001:00020abf       ?expand_if_necessary@?$argument_list@D@?A0xb0e4b824@@AAEHXZ 10021abf f i libucrt:argv_wildcards.obj
 0001:00020b46       ___acrt_expand_narrow_argv_wildcards 10021b46 f   libucrt:argv_wildcards.obj
 0001:00020b51       ??$?RV<lambda_978dc153c237d78434369da87b74ff60>@@AAV<lambda_ad1ced32f4ac17aa236e5ef05d6b3b7c>@@V<lambda_4a8533e2866a575feecb8298ce776b0d>@@@?$__crt_seh_guarded_call@X@@QAEX$$QAV<lambda_978dc153c237d78434369da87b74ff60>@@AAV<lambda_ad1ced32f4ac17aa236e5ef05d6b3b7c>@@$$QAV<lambda_4a8533e2866a575feecb8298ce776b0d>@@@Z 10021b51 f i libucrt:mbctype.obj
 0001:00020b94       ??$__acrt_lock_and_call@V<lambda_ad1ced32f4ac17aa236e5ef05d6b3b7c>@@@@YAXW4__acrt_lock_id@@$$QAV<lambda_ad1ced32f4ac17aa236e5ef05d6b3b7c>@@@Z 10021b94 f i libucrt:mbctype.obj
 0001:0002102b       ___acrt_initialize_multibyte 1002202b f   libucrt:mbctype.obj
 0001:00021049       ___acrt_update_thread_multibyte_data 10022049 f   libucrt:mbctype.obj
 0001:000210eb       __setmbcp_nolock           100220eb f   libucrt:mbctype.obj
 0001:00021335       __ismbblead                10022335 f   libucrt:ismbbyte.obj
 0001:0002134d       ___acrt_initialize_command_line 1002234d f   libucrt:argv_data.obj
 0001:0002139d       ___dcrt_get_narrow_environment_from_os 1002239d f   libucrt:get_environment_from_os.obj
 0001:00021420       __recalloc                 10022420 f   libucrt:recalloc.obj
 0001:0002142b       __recalloc_base            1002242b f   libucrt:recalloc.obj
 0001:00021498       ___acrt_initialize_heap    10022498 f   libucrt:heap_handle.obj
 0001:000214a9       ___acrt_uninitialize_heap  100224a9 f   libucrt:heap_handle.obj
 0001:000214b3       ___acrt_execute_initializers 100224b3 f   libucrt:shared_initialization.obj
 0001:00021536       ___acrt_execute_uninitializers 10022536 f   libucrt:shared_initialization.obj
 0001:00021583       ___acrt_initialize_new_handler 10022583 f   libucrt:new_handler.obj
 0001:00021597       __callnewh                 10022597 f   libucrt:new_handler.obj
 0001:000215db       __query_new_handler        100225db f   libucrt:new_handler.obj
 0001:0002162d       ??$?RV<lambda_a048d3beccc847880fc8490e18b82769>@@AAV<lambda_ec61778202f4f5fc7e7711acc23c3bca>@@V<lambda_f7496a158712204296dd6628a163878e>@@@?$__crt_seh_guarded_call@P6AXH@Z@@QAEP6AXH@Z$$QAV<lambda_a048d3beccc847880fc8490e18b82769>@@AAV<lambda_ec61778202f4f5fc7e7711acc23c3bca>@@$$QAV<lambda_f7496a158712204296dd6628a163878e>@@@Z 1002262d f i libucrt:signal.obj
 0001:00021687       ??$__acrt_lock_and_call@V<lambda_ec61778202f4f5fc7e7711acc23c3bca>@@@@YAP6AXH@ZW4__acrt_lock_id@@$$QAV<lambda_ec61778202f4f5fc7e7711acc23c3bca>@@@Z 10022687 f i libucrt:signal.obj
 0001:00021719       ___acrt_get_sigabrt_handler 10022719 f   libucrt:signal.obj
 0001:00021730       ___acrt_initialize_signal_handlers 10022730 f   libucrt:signal.obj
 0001:0002176b       ___fpecode                 1002276b f   libucrt:signal.obj
 0001:00021774       _raise                     10022774 f   libucrt:signal.obj
 0001:0002197c       ___acrt_has_user_matherr   1002297c f   libucrt:matherr.obj
 0001:00021995       ___acrt_initialize_user_matherr 10022995 f   libucrt:matherr.obj
 0001:000219a9       ___acrt_invoke_user_matherr 100229a9 f   libucrt:matherr.obj
 0001:000219f2       __query_new_mode           100229f2 f   libucrt:new_mode.obj
 0001:000219f8       __isleadbyte_l             100229f8 f i libucrt:_wctype.obj
 0001:00021c4e       ___acrt_LCMapStringA       10022c4e f   libucrt:lcmapstringa.obj
 0001:00021c99       __freea_crt                10022c99 f i libucrt:lcmapstringa.obj
 0001:00021cb9       ___acrt_add_locale_ref     10022cb9 f   libucrt:locale_refcounting.obj
 0001:00021d36       ___acrt_free_locale        10022d36 f   libucrt:locale_refcounting.obj
 0001:00021e80       ___acrt_locale_add_lc_time_reference 10022e80 f   libucrt:locale_refcounting.obj
 0001:00021ea9       ___acrt_locale_free_lc_time_if_unreferenced 10022ea9 f   libucrt:locale_refcounting.obj
 0001:00021ed9       ___acrt_locale_release_lc_time_reference 10022ed9 f   libucrt:locale_refcounting.obj
 0001:00021f02       ___acrt_release_locale_ref 10022f02 f   libucrt:locale_refcounting.obj
 0001:00021f83       ___acrt_update_thread_locale_data 10022f83 f   libucrt:locale_refcounting.obj
 0001:00021ffa       __updatetlocinfoEx_nolock  10022ffa f   libucrt:locale_refcounting.obj
 0001:0002204a       ___acrt_fp_strflt_to_string 1002304a f   libucrt:_fptostr.obj
 0001:00022106       ??0scoped_fp_state_reset@?A0x48fbfdd4@@QAE@XZ 10023106 f i libucrt:cfout.obj
 0001:00022130       ?divide@__crt_strtox@@YA_KAAUbig_integer@1@ABU21@@Z 10023130 f i libucrt:cfout.obj
 0001:000225de       ___acrt_fltout             100235de f   libucrt:cfout.obj
 0001:000239fb       __fcloseall                100249fb f   libucrt:closeall.obj
 0001:00023a9b       ___acrt_stdio_flush_nolock 10024a9b f   libucrt:fflush.obj
 0001:00023b01       __fflush_nolock            10024b01 f   libucrt:fflush.obj
 0001:00023b48       __flushall                 10024b48 f   libucrt:fflush.obj
 0001:00023c29       ___acrt_stdio_free_buffer_nolock 10024c29 f   libucrt:_freebuf.obj
 0001:00023c67       __isatty                   10024c67 f   libucrt:isatty.obj
 0001:00023cbd       ___acrt_locale_free_monetary 10024cbd f   libucrt:initmon.obj
 0001:00023dbb       ___acrt_locale_free_numeric 10024dbb f   libucrt:initnum.obj
 0001:00023e60       ___acrt_locale_free_time   10024e60 f   libucrt:inittime.obj
 0001:00023f44       ___acrt_GetStringTypeA     10024f44 f   libucrt:getstringtypea.obj
 0001:00024061       ___acrt_lowio_create_handle_array 10025061 f   libucrt:osfinfo.obj
 0001:000240db       ___acrt_lowio_destroy_handle_array 100250db f   libucrt:osfinfo.obj
 0001:00024110       ___acrt_lowio_ensure_fh_exists 10025110 f   libucrt:osfinfo.obj
 0001:000241a8       ___acrt_lowio_lock_fh      100251a8 f   libucrt:osfinfo.obj
 0001:000241cb       ___acrt_lowio_unlock_fh    100251cb f   libucrt:osfinfo.obj
 0001:000241ee       __free_osfhnd              100251ee f   libucrt:osfinfo.obj
 0001:0002427f       __get_osfhandle            1002527f f   libucrt:osfinfo.obj
 0001:000243a5       ___acrt_DownlevelLocaleNameToLCID 100253a5 f   libucrt:lcidtoname_downlevel.obj
 0001:000244c0       _qsort                     100254c0 f   libucrt:qsort.obj
 0001:0002490b       _strncpy_s                 1002590b f   libucrt:strncpy_s.obj
 0001:00024920       _strpbrk                   10025920 f   libucrt:strpbrk.obj
 0001:00024960       __mbsdec                   10025960 f   libucrt:mbsdec.obj
 0001:00024977       __mbsdec_l                 10025977 f   libucrt:mbsdec.obj
 0001:00024a13       __msize                    10025a13 f   libucrt:msize.obj
 0001:00024a46       __realloc_base             10025a46 f   libucrt:realloc_base.obj
 0001:00024aaf       ___strncnt                 10025aaf f   libucrt:strncnt.obj
 0001:00024acb       _fegetenv                  10025acb f   libucrt:fegetenv.obj
 0001:00024ae8       _fesetenv                  10025ae8 f   libucrt:fesetenv.obj
 0001:00024b31       _feholdexcept              10025b31 f   libucrt:feholdexcept.obj
 0001:00024b80       _log10                     10025b80 f   libucrt:log10.obj
 0001:00024bc0       __CIlog10                  10025bc0 f   libucrt:log10.obj
 0001:00024bfb       __CIlog10_default          10025bfb f   libucrt:log10.obj
 0001:00024c0f       __log10_default            10025c0f     libucrt:log10.obj
 0001:00024cd0       _ceil                      10025cd0 f   libucrt:ceil_pentium4.obj
 0001:00024d10       __ceil_pentium4            10025d10 f   libucrt:ceil_pentium4.obj
 0001:0002537f       __write                    1002637f f   libucrt:write.obj
 0001:0002546a       __write_nolock             1002646a f   libucrt:write.obj
 0001:000256f4       __lseeki64_nolock          100266f4 f   libucrt:lseek.obj
 0001:0002570f       __fclose_nolock            1002670f f   libucrt:fclose.obj
 0001:00025785       _fclose                    10026785 f   libucrt:fclose.obj
 0001:00025805       ??$?RV<lambda_61cee617f5178ae960314fd4d05640a0>@@AAV<lambda_6978c1fb23f02e42e1d9e99668cc68aa>@@V<lambda_9cd88cf8ad10232537feb2133f08c833>@@@?$__crt_seh_guarded_call@H@@QAEH$$QAV<lambda_61cee617f5178ae960314fd4d05640a0>@@AAV<lambda_6978c1fb23f02e42e1d9e99668cc68aa>@@$$QAV<lambda_9cd88cf8ad10232537feb2133f08c833>@@@Z 10026805 f i libucrt:commit.obj
 0001:0002589d       ??$__acrt_lowio_lock_fh_and_call@V<lambda_6978c1fb23f02e42e1d9e99668cc68aa>@@@@YAHH$$QAV<lambda_6978c1fb23f02e42e1d9e99668cc68aa>@@@Z 1002689d f i libucrt:commit.obj
 0001:000258c5       __commit                   100268c5 f   libucrt:commit.obj
 0001:00025934       __query_app_type           10026934 f   libucrt:report_runtime_error.obj
 0001:00025bdd       __getfpcontrolword         10026bdd f   libucrt:_fenvutils.obj
 0001:00025c20       __getfpstatusword          10026c20 f   libucrt:_fenvutils.obj
 0001:00025cc8       __setfpcontrolword         10026cc8 f   libucrt:_fenvutils.obj
 0001:00025d48       __setfpstatusword          10026d48 f   libucrt:_fenvutils.obj
 0001:00025dc8       __clearfp                  10026dc8 f   libucrt:ieee87.obj
 0001:00025ea6       ___acrt_initialize_sse2    10026ea6 f   libucrt:mathfcns.obj
 0001:00025ec0       __CIlog10_pentium4         10026ec0 f   libucrt:log10_pentium4.obj
 0001:00025ed8       __log10_pentium4           10026ed8     libucrt:log10_pentium4.obj
 0001:00026161       __fFEXP                    10027161     libucrt:87tran.obj
 0001:000261b8       __rtinfpopse               100271b8     libucrt:87tran.obj
 0001:000261ba       __rtinfnpopse              100271ba     libucrt:87tran.obj
 0001:000261ca       __fFLN                     100271ca     libucrt:87tran.obj
 0001:0002627f       __rtinfpop                 1002727f     libucrt:87tran.obj
 0001:00026281       __rtinfnpop                10027281     libucrt:87tran.obj
 0001:0002629e       __ffexpm1                  1002729e     libucrt:87tran.obj
 0001:00026350       __trandisp1                10027350 f   libucrt:87disp.obj
 0001:000263b7       __trandisp2                100273b7 f   libucrt:87disp.obj
 0001:00026443       __rttospopde               10027443     libucrt:87disp.obj
 0001:00026448       __rttospop                 10027448     libucrt:87disp.obj
 0001:0002644a       __rtnospop                 1002744a     libucrt:87disp.obj
 0001:0002644c       __rttosnpop                1002744c     libucrt:87disp.obj
 0001:0002644d       __rtnospopde               1002744d     libucrt:87disp.obj
 0001:00026454       __rtzeropop                10027454     libucrt:87disp.obj
 0001:00026456       __rtzeronpop               10027456     libucrt:87disp.obj
 0001:0002645b       __rtzerospop               1002745b     libucrt:87disp.obj
 0001:00026468       __rtonepop                 10027468     libucrt:87disp.obj
 0001:0002646a       __rtonenpop                1002746a     libucrt:87disp.obj
 0001:0002646f       __tosnan1                  1002746f     libucrt:87disp.obj
 0001:0002649a       __nosnan2                  1002749a     libucrt:87disp.obj
 0001:0002649c       __tosnan2                  1002749c     libucrt:87disp.obj
 0001:000264c4       __nan2                     100274c4     libucrt:87disp.obj
 0001:00026503       __rtindfpop                10027503     libucrt:87disp.obj
 0001:00026505       __rtindfnpop               10027505     libucrt:87disp.obj
 0001:00026516       __rttosnpopde              10027516     libucrt:87disp.obj
 0001:00026520       __rtatan2inf               10027520     libucrt:87disp.obj
 0001:0002653d       __rtchsifneg               1002753d     libucrt:87disp.obj
 0001:00026550       __twoToTOS                 10027550 f   libucrt:common.obj
 0001:00026565       __load_CW                  10027565 f   libucrt:common.obj
 0001:0002657c       __convertTOStoQNaN         1002757c f   libucrt:common.obj
 0001:00026595       __fload_withFB             10027595 f   libucrt:common.obj
 0001:000265d8       __checkTOS_withFB          100275d8 f   libucrt:common.obj
 0001:000265ee       __fast_exit                100275ee f   libucrt:common.obj
 0001:000265fb       __math_exit                100275fb f   libucrt:common.obj
 0001:00026625       __check_overflow_exit      10027625 f   libucrt:common.obj
 0001:00026639       __check_range_exit         10027639 f   libucrt:common.obj
 0001:000266e0       __startTwoArgErrorHandling 100276e0 f   libucrt:genexcep.obj
 0001:000266f7       __startOneArgErrorHandling 100276f7 f   libucrt:genexcep.obj
 0001:00026733       ___libm_error_support      10027733 f   libucrt:libm_error.obj
 0001:0002694b       __ceil_default             1002794b f   libucrt:ceil.obj
 0001:00026a04       __putwch_nolock            10027a04 f   libucrt:putwch.obj
 0001:00026a49       ??$?RV<lambda_123407a5e2ac06da108355a851863b7a>@@AAV<lambda_2fe9b910cf3cbf4a0ab98a02ba45b3ec>@@V<lambda_ae55bdf541ad94d75914d381c370e64d>@@@?$__crt_seh_guarded_call@H@@QAEH$$QAV<lambda_123407a5e2ac06da108355a851863b7a>@@AAV<lambda_2fe9b910cf3cbf4a0ab98a02ba45b3ec>@@$$QAV<lambda_ae55bdf541ad94d75914d381c370e64d>@@@Z 10027a49 f i libucrt:close.obj
 0001:00026acb       ??$__acrt_lowio_lock_fh_and_call@V<lambda_2fe9b910cf3cbf4a0ab98a02ba45b3ec>@@@@YAHH$$QAV<lambda_2fe9b910cf3cbf4a0ab98a02ba45b3ec>@@@Z 10027acb f i libucrt:close.obj
 0001:00026af3       __close                    10027af3 f   libucrt:close.obj
 0001:00026b72       __close_nolock             10027b72 f   libucrt:close.obj
 0001:00026c0e       ?__acrt_stdio_free_stream@@YAXV__crt_stdio_stream@@@Z 10027c0e f   libucrt:stream.obj
 0001:00026c50       ___ascii_strnicmp          10027c50 f   libucrt:_strnicm.obj
 0001:00026cb1       __clrfp                    10027cb1 f   libucrt:fpctrl.obj
 0001:00026cc4       __ctrlfp                   10027cc4 f   libucrt:fpctrl.obj
 0001:00026cf0       __set_statfp               10027cf0 f   libucrt:fpctrl.obj
 0001:00026d4b       __statfp                   10027d4b f   libucrt:fpctrl.obj
 0001:00026d5d       __d_inttype                10027d5d f   libucrt:powhlp.obj
 0001:00026dc7       __powhlp                   10027dc7 f   libucrt:powhlp.obj
 0001:00026ef2       __87except                 10027ef2 f   libucrt:87except.obj
 0001:00026ffd       __frnd                     10027ffd f   libucrt:frnd.obj
 0001:00027013       __errcode                  10028013 f   libucrt:fpexcept.obj
 0001:00027047       __except1                  10028047 f   libucrt:fpexcept.obj
 0001:00027115       __handle_exc               10028115 f   libucrt:fpexcept.obj
 0001:000272f5       __raise_exc                100282f5 f   libucrt:fpexcept.obj
 0001:00027318       __raise_exc_ex             10028318 f   libucrt:fpexcept.obj
 0001:00027609       __set_errno_from_matherr   10028609 f   libucrt:fpexcept.obj
 0001:00027638       __umatherr                 10028638 f   libucrt:fpexcept.obj
 0001:000276da       __decomp                   100286da f   libucrt:util.obj
 0001:000277ae       __set_exp                  100287ae f   libucrt:util.obj
 0001:000277dd       __sptype                   100287dd f   libucrt:util.obj
 0001:0002783b       ___dcrt_lowio_initialize_console_output 1002883b f   libucrt:initcon.obj
 0001:0002785a       ___dcrt_terminate_console_output 1002885a f   libucrt:initcon.obj
 0001:00027871       __fpclass                  10028871 f   libucrt:ieeemisc.obj
 0001:00027915       _Process32FirstW@8         10028915 f   kernel32:KERNEL32.dll
 0001:0002791b       _Process32NextW@8          1002891b f   kernel32:KERNEL32.dll
 0001:00027921       _IsProcessorFeaturePresent@4 10028921 f   kernel32:KERNEL32.dll
 0001:00027927       ?apiGetConsoleFontSize@@YAHPAXAAH1AAY0CA@_W@Z 10028927 f   common-kernel32:WConsole.obj
 0001:000279c0       ?apiGetCurrentConsoleFontEx@@YAHPAXHPAUMY_CONSOLE_FONT_INFOEX@@@Z 100289c0 f   common-kernel32:WConsole.obj
 0001:00027a0f       ?apiSetConsoleFontSize@@YAHPAXHHPB_W@Z 10028a0f f   common-kernel32:WConsole.obj
 0001:00027afb       ?apiSetCurrentConsoleFontEx@@YAHPAXHPAUMY_CONSOLE_FONT_INFOEX@@@Z 10028afb f   common-kernel32:WConsole.obj
 0001:00027b50       __FindPESection            10028b50 f   LIBCMT:pesect.obj
 0001:00027ba0       __IsNonwritableInCurrentImage 10028ba0 f   LIBCMT:pesect.obj
 0001:00027c60       __ValidateImageBase        10028c60 f   LIBCMT:pesect.obj
 0001:00027ca0       __aulldvrm                 10028ca0 f   LIBCMT:ulldvrm.obj
 0001:00027d40       __allmul                   10028d40 f   LIBCMT:llmul.obj
 0001:00027d80       __SEH_prolog4_GS           10028d80 f   LIBCMT:_sehprolg4gs_.obj
 0001:00027dc9       __SEH_epilog4_GS           10028dc9 f   LIBCMT:_sehprolg4gs_.obj
 0001:00027de0       __alldvrm                  10028de0 f   LIBCMT:lldvrm.obj
 0001:00027ec0       __alloca_probe_16          10028ec0 f   LIBCMT:alloca16.obj
 0001:00027ed6       __alloca_probe_8           10028ed6     LIBCMT:alloca16.obj
 0001:00027ef0       __allshl                   10028ef0 f   LIBCMT:llshl.obj
 0001:00027f10       __ftol2_sse                10028f10 f   LIBCMT:_ftol2_.obj
 0001:00027f19       __ftol2_pentium4           10028f19 f   LIBCMT:_ftol2_.obj
 0001:00027f2c       __ftol2_sse_excpt          10028f2c f   LIBCMT:_ftol2_.obj
 0001:00027f50       __ftol2                    10028f50 f   LIBCMT:_ftol2_.obj
 0002:00000000       __imp__RegQueryValueExW@24 1002a000     advapi32:ADVAPI32.dll
 0002:00000004       __imp__RegOpenKeyExW@20    1002a004     advapi32:ADVAPI32.dll
 0002:00000008       __imp__RegCloseKey@4       1002a008     advapi32:ADVAPI32.dll
 0002:0000000c       __imp__RegCreateKeyExW@36  1002a00c     advapi32:ADVAPI32.dll
 0002:00000010       \177ADVAPI32_NULL_THUNK_DATA 1002a010     advapi32:ADVAPI32.dll
 0002:00000014       __imp__GdiFlush@0          1002a014     gdi32:GDI32.dll
 0002:00000018       __imp__GetEnhMetaFileBits@12 1002a018     gdi32:GDI32.dll
 0002:0000001c       __imp__DeleteEnhMetaFile@4 1002a01c     gdi32:GDI32.dll
 0002:00000020       __imp__CreateEnhMetaFileW@16 1002a020     gdi32:GDI32.dll
 0002:00000024       __imp__CloseEnhMetaFile@4  1002a024     gdi32:GDI32.dll
 0002:00000028       __imp__GetDeviceCaps@8     1002a028     gdi32:GDI32.dll
 0002:0000002c       __imp__DeleteObject@4      1002a02c     gdi32:GDI32.dll
 0002:00000030       __imp__CreateSolidBrush@4  1002a030     gdi32:GDI32.dll
 0002:00000034       __imp__CreateCompatibleDC@4 1002a034     gdi32:GDI32.dll
 0002:00000038       __imp__CreateFontIndirectW@4 1002a038     gdi32:GDI32.dll
 0002:0000003c       __imp__DeleteDC@4          1002a03c     gdi32:GDI32.dll
 0002:00000040       __imp__SelectObject@8      1002a040     gdi32:GDI32.dll
 0002:00000044       __imp__GetTextMetricsW@8   1002a044     gdi32:GDI32.dll
 0002:00000048       \177GDI32_NULL_THUNK_DATA  1002a048     gdi32:GDI32.dll
 0002:0000004c       __imp__GetCurrentThreadId@0 1002a04c     kernel32:KERNEL32.dll
 0002:00000050       __imp__SetLastError@4      1002a050     kernel32:KERNEL32.dll
 0002:00000054       __imp__SuspendThread@4     1002a054     kernel32:KERNEL32.dll
 0002:00000058       __imp__ResumeThread@4      1002a058     kernel32:KERNEL32.dll
 0002:0000005c       __imp__IsDebuggerPresent@0 1002a05c     kernel32:KERNEL32.dll
 0002:00000060       __imp__SetEvent@4          1002a060     kernel32:KERNEL32.dll
 0002:00000064       __imp__ResetEvent@4        1002a064     kernel32:KERNEL32.dll
 0002:00000068       __imp__ReleaseSemaphore@12 1002a068     kernel32:KERNEL32.dll
 0002:0000006c       __imp__WaitForSingleObject@8 1002a06c     kernel32:KERNEL32.dll
 0002:00000070       __imp__WaitForMultipleObjects@16 1002a070     kernel32:KERNEL32.dll
 0002:00000074       __imp__Sleep@4             1002a074     kernel32:KERNEL32.dll
 0002:00000078       __imp__GetStdHandle@4      1002a078     kernel32:KERNEL32.dll
 0002:0000007c       __imp__GetTickCount@0      1002a07c     kernel32:KERNEL32.dll
 0002:00000080       __imp__MapViewOfFile@20    1002a080     kernel32:KERNEL32.dll
 0002:00000084       __imp__UnmapViewOfFile@4   1002a084     kernel32:KERNEL32.dll
 0002:00000088       __imp__lstrcmpW@8          1002a088     kernel32:KERNEL32.dll
 0002:0000008c       __imp__lstrcmpiW@8         1002a08c     kernel32:KERNEL32.dll
 0002:00000090       __imp__lstrcatW@8          1002a090     kernel32:KERNEL32.dll
 0002:00000094       __imp__CreateEventW@16     1002a094     kernel32:KERNEL32.dll
 0002:00000098       __imp__CreateSemaphoreW@16 1002a098     kernel32:KERNEL32.dll
 0002:0000009c       __imp__CreateFileMappingW@24 1002a09c     kernel32:KERNEL32.dll
 0002:000000a0       __imp__OpenFileMappingW@12 1002a0a0     kernel32:KERNEL32.dll
 0002:000000a4       __imp__GetModuleFileNameW@12 1002a0a4     kernel32:KERNEL32.dll
 0002:000000a8       __imp__CreateProcessW@40   1002a0a8     kernel32:KERNEL32.dll
 0002:000000ac       __imp__GetEnvironmentVariableW@12 1002a0ac     kernel32:KERNEL32.dll
 0002:000000b0       __imp__DeleteFileW@4       1002a0b0     kernel32:KERNEL32.dll
 0002:000000b4       __imp__IsBadStringPtrW@8   1002a0b4     kernel32:KERNEL32.dll
 0002:000000b8       __imp__PeekConsoleInputW@16 1002a0b8     kernel32:KERNEL32.dll
 0002:000000bc       __imp__ReadConsoleInputW@16 1002a0bc     kernel32:KERNEL32.dll
 0002:000000c0       __imp__WriteConsoleInputW@16 1002a0c0     kernel32:KERNEL32.dll
 0002:000000c4       __imp__lstrcpynW@12        1002a0c4     kernel32:KERNEL32.dll
 0002:000000c8       __imp__GetNumberOfConsoleInputEvents@8 1002a0c8     kernel32:KERNEL32.dll
 0002:000000cc       __imp__GetConsoleScreenBufferInfo@8 1002a0cc     kernel32:KERNEL32.dll
 0002:000000d0       __imp__GetConsoleCursorInfo@8 1002a0d0     kernel32:KERNEL32.dll
 0002:000000d4       __imp__GetEnvironmentStringsW@0 1002a0d4     kernel32:KERNEL32.dll
 0002:000000d8       __imp__GetConsoleTitleW@8  1002a0d8     kernel32:KERNEL32.dll
 0002:000000dc       __imp__SetConsoleTitleW@4  1002a0dc     kernel32:KERNEL32.dll
 0002:000000e0       __imp__CreateToolhelp32Snapshot@8 1002a0e0     kernel32:KERNEL32.dll
 0002:000000e4       __imp__Thread32First@8     1002a0e4     kernel32:KERNEL32.dll
 0002:000000e8       __imp__Thread32Next@8      1002a0e8     kernel32:KERNEL32.dll
 0002:000000ec       __imp__Module32FirstW@8    1002a0ec     kernel32:KERNEL32.dll
 0002:000000f0       __imp__Module32NextW@8     1002a0f0     kernel32:KERNEL32.dll
 0002:000000f4       __imp__SetThreadPriority@8 1002a0f4     kernel32:KERNEL32.dll
 0002:000000f8       __imp__GetExitCodeThread@8 1002a0f8     kernel32:KERNEL32.dll
 0002:000000fc       __imp__GetOverlappedResult@16 1002a0fc     kernel32:KERNEL32.dll
 0002:00000100       __imp__WriteFile@20        1002a100     kernel32:KERNEL32.dll
 0002:00000104       __imp__ReadFile@20         1002a104     kernel32:KERNEL32.dll
 0002:00000108       __imp__FlushFileBuffers@4  1002a108     kernel32:KERNEL32.dll
 0002:0000010c       __imp__ConnectNamedPipe@8  1002a10c     kernel32:KERNEL32.dll
 0002:00000110       __imp__DisconnectNamedPipe@4 1002a110     kernel32:KERNEL32.dll
 0002:00000114       __imp__CreateNamedPipeW@32 1002a114     kernel32:KERNEL32.dll
 0002:00000118       __imp__CloseHandle@4       1002a118     kernel32:KERNEL32.dll
 0002:0000011c       __imp__VirtualProtect@16   1002a11c     kernel32:KERNEL32.dll
 0002:00000120       __imp__GetModuleHandleW@4  1002a120     kernel32:KERNEL32.dll
 0002:00000124       __imp__LoadLibraryW@4      1002a124     kernel32:KERNEL32.dll
 0002:00000128       __imp__GetLastError@0      1002a128     kernel32:KERNEL32.dll
 0002:0000012c       __imp__GetCurrentProcessId@0 1002a12c     kernel32:KERNEL32.dll
 0002:00000130       __imp__GetProcAddress@8    1002a130     kernel32:KERNEL32.dll
 0002:00000134       __imp__GetExitCodeProcess@8 1002a134     kernel32:KERNEL32.dll
 0002:00000138       __imp__TerminateProcess@8  1002a138     kernel32:KERNEL32.dll
 0002:0000013c       __imp__GetCurrentProcess@0 1002a13c     kernel32:KERNEL32.dll
 0002:00000140       __imp__InterlockedDecrement@4 1002a140     kernel32:KERNEL32.dll
 0002:00000144       __imp__InterlockedIncrement@4 1002a144     kernel32:KERNEL32.dll
 0002:00000148       __imp__WriteConsoleW@20    1002a148     kernel32:KERNEL32.dll
 0002:0000014c       __imp__DecodePointer@4     1002a14c     kernel32:KERNEL32.dll
 0002:00000150       __imp__SetFilePointerEx@20 1002a150     kernel32:KERNEL32.dll
 0002:00000154       __imp__WideCharToMultiByte@32 1002a154     kernel32:KERNEL32.dll
 0002:00000158       __imp__MultiByteToWideChar@24 1002a158     kernel32:KERNEL32.dll
 0002:0000015c       __imp__lstrlenA@4          1002a15c     kernel32:KERNEL32.dll
 0002:00000160       __imp__lstrcpyA@8          1002a160     kernel32:KERNEL32.dll
 0002:00000164       __imp__lstrcpynA@12        1002a164     kernel32:KERNEL32.dll
 0002:00000168       __imp__SetEnvironmentVariableW@8 1002a168     kernel32:KERNEL32.dll
 0002:0000016c       __imp__lstrlenW@4          1002a16c     kernel32:KERNEL32.dll
 0002:00000170       __imp__SetConsoleMode@8    1002a170     kernel32:KERNEL32.dll
 0002:00000174       __imp__lstrcpyW@8          1002a174     kernel32:KERNEL32.dll
 0002:00000178       __imp__GetConsoleMode@8    1002a178     kernel32:KERNEL32.dll
 0002:0000017c       __imp__VerSetConditionMask@16 1002a17c     kernel32:KERNEL32.dll
 0002:00000180       __imp__HeapCreate@12       1002a180     kernel32:KERNEL32.dll
 0002:00000184       __imp__HeapDestroy@4       1002a184     kernel32:KERNEL32.dll
 0002:00000188       __imp__HeapAlloc@12        1002a188     kernel32:KERNEL32.dll
 0002:0000018c       __imp__HeapReAlloc@16      1002a18c     kernel32:KERNEL32.dll
 0002:00000190       __imp__HeapFree@12         1002a190     kernel32:KERNEL32.dll
 0002:00000194       __imp__HeapSize@12         1002a194     kernel32:KERNEL32.dll
 0002:00000198       __imp__SetNamedPipeHandleState@16 1002a198     kernel32:KERNEL32.dll
 0002:0000019c       __imp__TransactNamedPipe@28 1002a19c     kernel32:KERNEL32.dll
 0002:000001a0       __imp__CreateFileW@28      1002a1a0     kernel32:KERNEL32.dll
 0002:000001a4       __imp__WaitNamedPipeW@8    1002a1a4     kernel32:KERNEL32.dll
 0002:000001a8       __imp__GetConsoleWindow@0  1002a1a8     kernel32:KERNEL32.dll
 0002:000001ac       __imp__DebugBreak@0        1002a1ac     kernel32:KERNEL32.dll
 0002:000001b0       __imp__RaiseException@16   1002a1b0     kernel32:KERNEL32.dll
 0002:000001b4       __imp__CreateThread@24     1002a1b4     kernel32:KERNEL32.dll
 0002:000001b8       __imp__TerminateThread@8   1002a1b8     kernel32:KERNEL32.dll
 0002:000001bc       __imp__GetConsoleCP@0      1002a1bc     kernel32:KERNEL32.dll
 0002:000001c0       __imp__FreeLibrary@4       1002a1c0     kernel32:KERNEL32.dll
 0002:000001c4       __imp__GetFileInformationByHandle@8 1002a1c4     kernel32:KERNEL32.dll
 0002:000001c8       __imp__FindClose@4         1002a1c8     kernel32:KERNEL32.dll
 0002:000001cc       __imp__ExpandEnvironmentStringsW@12 1002a1cc     kernel32:KERNEL32.dll
 0002:000001d0       __imp__FindFirstFileW@8    1002a1d0     kernel32:KERNEL32.dll
 0002:000001d4       __imp__FindNextFileW@8     1002a1d4     kernel32:KERNEL32.dll
 0002:000001d8       __imp__VerifyVersionInfoW@16 1002a1d8     kernel32:KERNEL32.dll
 0002:000001dc       __imp__LocalAlloc@8        1002a1dc     kernel32:KERNEL32.dll
 0002:000001e0       __imp__LocalFree@4         1002a1e0     kernel32:KERNEL32.dll
 0002:000001e4       __imp__Process32FirstW@8   1002a1e4     kernel32:KERNEL32.dll
 0002:000001e8       __imp__Process32NextW@8    1002a1e8     kernel32:KERNEL32.dll
 0002:000001ec       __imp__OpenThread@12       1002a1ec     kernel32:KERNEL32.dll
 0002:000001f0       __imp__VirtualAlloc@16     1002a1f0     kernel32:KERNEL32.dll
 0002:000001f4       __imp__VirtualFree@12      1002a1f4     kernel32:KERNEL32.dll
 0002:000001f8       __imp__GetSystemInfo@4     1002a1f8     kernel32:KERNEL32.dll
 0002:000001fc       __imp__IsBadReadPtr@8      1002a1fc     kernel32:KERNEL32.dll
 0002:00000200       __imp__InitializeCriticalSection@4 1002a200     kernel32:KERNEL32.dll
 0002:00000204       __imp__EnterCriticalSection@4 1002a204     kernel32:KERNEL32.dll
 0002:00000208       __imp__LeaveCriticalSection@4 1002a208     kernel32:KERNEL32.dll
 0002:0000020c       __imp__TryEnterCriticalSection@4 1002a20c     kernel32:KERNEL32.dll
 0002:00000210       __imp__DeleteCriticalSection@4 1002a210     kernel32:KERNEL32.dll
 0002:00000214       __imp__FreeEnvironmentStringsW@4 1002a214     kernel32:KERNEL32.dll
 0002:00000218       __imp__ReleaseMutex@4      1002a218     kernel32:KERNEL32.dll
 0002:0000021c       __imp__CreateMutexW@12     1002a21c     kernel32:KERNEL32.dll
 0002:00000220       __imp__GetConsoleOutputCP@0 1002a220     kernel32:KERNEL32.dll
 0002:00000224       __imp__GetStartupInfoW@4   1002a224     kernel32:KERNEL32.dll
 0002:00000228       __imp__WaitForSingleObjectEx@12 1002a228     kernel32:KERNEL32.dll
 0002:0000022c       __imp__UnhandledExceptionFilter@4 1002a22c     kernel32:KERNEL32.dll
 0002:00000230       __imp__SetUnhandledExceptionFilter@4 1002a230     kernel32:KERNEL32.dll
 0002:00000234       __imp__IsProcessorFeaturePresent@4 1002a234     kernel32:KERNEL32.dll
 0002:00000238       __imp__QueryPerformanceCounter@4 1002a238     kernel32:KERNEL32.dll
 0002:0000023c       __imp__GetSystemTimeAsFileTime@4 1002a23c     kernel32:KERNEL32.dll
 0002:00000240       __imp__InitializeSListHead@4 1002a240     kernel32:KERNEL32.dll
 0002:00000244       __imp__RtlUnwind@16        1002a244     kernel32:KERNEL32.dll
 0002:00000248       __imp__InitializeCriticalSectionAndSpinCount@8 1002a248     kernel32:KERNEL32.dll
 0002:0000024c       __imp__TlsAlloc@0          1002a24c     kernel32:KERNEL32.dll
 0002:00000250       __imp__TlsGetValue@4       1002a250     kernel32:KERNEL32.dll
 0002:00000254       __imp__TlsSetValue@8       1002a254     kernel32:KERNEL32.dll
 0002:00000258       __imp__TlsFree@4           1002a258     kernel32:KERNEL32.dll
 0002:0000025c       __imp__LoadLibraryExW@12   1002a25c     kernel32:KERNEL32.dll
 0002:00000260       __imp__InterlockedFlushSList@4 1002a260     kernel32:KERNEL32.dll
 0002:00000264       __imp__EncodePointer@4     1002a264     kernel32:KERNEL32.dll
 0002:00000268       __imp__ExitProcess@4       1002a268     kernel32:KERNEL32.dll
 0002:0000026c       __imp__GetModuleHandleExW@12 1002a26c     kernel32:KERNEL32.dll
 0002:00000270       __imp__GetModuleFileNameA@12 1002a270     kernel32:KERNEL32.dll
 0002:00000274       __imp__GetACP@0            1002a274     kernel32:KERNEL32.dll
 0002:00000278       __imp__GetFileType@4       1002a278     kernel32:KERNEL32.dll
 0002:0000027c       __imp__GetStringTypeW@16   1002a27c     kernel32:KERNEL32.dll
 0002:00000280       __imp__LCMapStringW@24     1002a280     kernel32:KERNEL32.dll
 0002:00000284       __imp__FindFirstFileExA@24 1002a284     kernel32:KERNEL32.dll
 0002:00000288       __imp__FindNextFileA@8     1002a288     kernel32:KERNEL32.dll
 0002:0000028c       __imp__IsValidCodePage@4   1002a28c     kernel32:KERNEL32.dll
 0002:00000290       __imp__GetOEMCP@0          1002a290     kernel32:KERNEL32.dll
 0002:00000294       __imp__GetCPInfo@8         1002a294     kernel32:KERNEL32.dll
 0002:00000298       __imp__GetCommandLineA@0   1002a298     kernel32:KERNEL32.dll
 0002:0000029c       __imp__GetCommandLineW@0   1002a29c     kernel32:KERNEL32.dll
 0002:000002a0       __imp__GetProcessHeap@0    1002a2a0     kernel32:KERNEL32.dll
 0002:000002a4       __imp__SetStdHandle@8      1002a2a4     kernel32:KERNEL32.dll
 0002:000002a8       \177KERNEL32_NULL_THUNK_DATA 1002a2a8     kernel32:KERNEL32.dll
 0002:000002ac       __imp__LoadKeyboardLayoutW@8 1002a2ac     user32:USER32.dll
 0002:000002b0       __imp__FillRect@12         1002a2b0     user32:USER32.dll
 0002:000002b4       __imp__ReleaseDC@8         1002a2b4     user32:USER32.dll
 0002:000002b8       __imp__GetClassNameW@12    1002a2b8     user32:USER32.dll
 0002:000002bc       __imp__GetSystemMetrics@4  1002a2bc     user32:USER32.dll
 0002:000002c0       __imp__FindWindowW@8       1002a2c0     user32:USER32.dll
 0002:000002c4       __imp__SetWindowPos@28     1002a2c4     user32:USER32.dll
 0002:000002c8       __imp__EnableWindow@8      1002a2c8     user32:USER32.dll
 0002:000002cc       __imp__IsWindowEnabled@4   1002a2cc     user32:USER32.dll
 0002:000002d0       __imp__GetWindowRect@8     1002a2d0     user32:USER32.dll
 0002:000002d4       __imp__MonitorFromWindow@8 1002a2d4     user32:USER32.dll
 0002:000002d8       __imp__GetMonitorInfoW@8   1002a2d8     user32:USER32.dll
 0002:000002dc       __imp__SendMessageW@16     1002a2dc     user32:USER32.dll
 0002:000002e0       __imp__ShowWindow@8        1002a2e0     user32:USER32.dll
 0002:000002e4       __imp__ShowWindowAsync@8   1002a2e4     user32:USER32.dll
 0002:000002e8       __imp__ActivateKeyboardLayout@8 1002a2e8     user32:USER32.dll
 0002:000002ec       __imp__IsRectEmpty@4       1002a2ec     user32:USER32.dll
 0002:000002f0       __imp__EnumDisplayMonitors@16 1002a2f0     user32:USER32.dll
 0002:000002f4       __imp__GetDC@4             1002a2f4     user32:USER32.dll
 0002:000002f8       __imp__GetWindowThreadProcessId@8 1002a2f8     user32:USER32.dll
 0002:000002fc       __imp__IsWindowVisible@4   1002a2fc     user32:USER32.dll
 0002:00000300       __imp__PostMessageW@16     1002a300     user32:USER32.dll
 0002:00000304       __imp__RegisterWindowMessageW@4 1002a304     user32:USER32.dll
 0002:00000308       __imp__wsprintfW           1002a308     user32:USER32.dll
 0002:0000030c       __imp__CharUpperBuffW@8    1002a30c     user32:USER32.dll
 0002:00000310       __imp__GetParent@4         1002a310     user32:USER32.dll
 0002:00000314       __imp__GetWindowLongW@8    1002a314     user32:USER32.dll
 0002:00000318       __imp__IsWindow@4          1002a318     user32:USER32.dll
 0002:0000031c       __imp__MessageBoxW@16      1002a31c     user32:USER32.dll
 0002:00000320       \177USER32_NULL_THUNK_DATA 1002a320     user32:USER32.dll
 0002:00000324       __imp__VerQueryValueW@16   1002a324     version:VERSION.dll
 0002:00000328       __imp__GetFileVersionInfoW@16 1002a328     version:VERSION.dll
 0002:0000032c       __imp__GetFileVersionInfoSizeW@8 1002a32c     version:VERSION.dll
 0002:00000330       \177VERSION_NULL_THUNK_DATA 1002a330     version:VERSION.dll
 0002:00000334       ___guard_check_icall_fptr  1002a334     LIBCMT:guard_support.obj
 0002:00000338       ___xc_a                    1002a338     LIBCMT:initializers.obj
 0002:00000340       ___xc_z                    1002a340     LIBCMT:initializers.obj
 0002:00000344       ___xi_a                    1002a344     LIBCMT:initializers.obj
 0002:0000034c       ___acrt_stdio_initializer  1002a34c     libucrt:stdio_initializer.obj
 0002:00000350       ___acrt_multibyte_initializer 1002a350     libucrt:multibyte_initializer.obj
 0002:00000354       ___acrt_tran_sse2_initializer 1002a354     libucrt:sse2_initializer.obj
 0002:00000358       ___xi_z                    1002a358     LIBCMT:initializers.obj
 0002:0000035c       ___xl_a                    1002a35c     LIBCMT:tlssup.obj
 0002:00000360       ___xl_z                    1002a360     LIBCMT:tlssup.obj
 0002:00000364       ___xp_a                    1002a364     LIBCMT:initializers.obj
 0002:00000368       ___acrt_locale_terminator  1002a368     libucrt:locale_initializer.obj
 0002:0000036c       ___dcrt_console_output_terminator 1002a36c     libucrt:console_output_initializer.obj
 0002:00000370       ___acrt_stdio_terminator   1002a370     libucrt:stdio_initializer.obj
 0002:00000374       ___xp_z                    1002a374     LIBCMT:initializers.obj
 0002:00000378       ___xt_a                    1002a378     LIBCMT:initializers.obj
 0002:0000037c       ___xt_z                    1002a37c     LIBCMT:initializers.obj
 0002:00000380       ??_C@_1BK@FLBMCLFA@?$AAC?$AAo?$AAn?$AAE?$AAm?$AAu?$AAH?$AAk?$AA?4?$AAd?$AAl?$AAl?$AA?$AA@ 1002a380     ConEmuInjects.obj
 0002:000003a0       ??_C@_1IM@IDJBHJMA@?$AAC?$AAo?$AAn?$AAE?$AAm?$AAu?$AAH?$AAk?$AA?5?$AAw?$AAa?$AAs?$AA?5?$AAn?$AAo?$AAt?$AA?5?$AAl?$AAo?$AAa?$AAd?$AAe?$AAd?$AA?0?$AA?5?$AAb?$AAu?$AAt?$AA?5?$AAC?$AAo?$AAn@ 1002a3a0     ConEmuInjects.obj
 0002:0000042c       ??_C@_1BM@LHLFCECN@?$AAC?$AAo?$AAn?$AAE?$AAm?$AAu?$AA?5?$AAp?$AAl?$AAu?$AAg?$AAi?$AAn?$AA?$AA@ 1002a42c     ConEmuInjects.obj
 0002:00000448       ??_C@_0BB@OPFPFOCM@SetHookCallbacks?$AA@ 1002a448     ConEmuInjects.obj
 0002:0000045c       ??_C@_0BH@HLKHEPME@SetLoadLibraryCallback?$AA@ 1002a45c     ConEmuInjects.obj
 0002:00000474       ??_C@_0P@JOHNNMGG@SetFarHookMode?$AA@ 1002a474     ConEmuInjects.obj
 0002:00000484       ??_C@_1CM@DEPCLAGE@?$AAC?$AAo?$AAn?$AAE?$AAm?$AAu?$AA?5?$AAp?$AAl?$AAu?$AAg?$AAi?$AAn?$AA?0?$AA?5?$AAP?$AAI?$AAD?$AA?$DN?$AA?$CF?$AAu?$AA?$AA@ 1002a484     ConEmuInjects.obj
 0002:000004b0       ??_C@_1CC@JNEFFKJH@?$AAS?$AAe?$AAt?$AAH?$AAo?$AAo?$AAk?$AAC?$AAa?$AAl?$AAl?$AAb?$AAa?$AAc?$AAk?$AAs?$AA?$AA@ 1002a4b0     ConEmuInjects.obj
 0002:000004d4       ??_C@_1CO@HHOFMBDD@?$AAS?$AAe?$AAt?$AAL?$AAo?$AAa?$AAd?$AAL?$AAi?$AAb?$AAr?$AAa?$AAr?$AAy?$AAC?$AAa?$AAl?$AAl?$AAb?$AAa?$AAc?$AAk?$AA?$AA@ 1002a4d4     ConEmuInjects.obj
 0002:00000504       ??_C@_1BO@OGOEDKED@?$AAS?$AAe?$AAt?$AAF?$AAa?$AAr?$AAH?$AAo?$AAo?$AAk?$AAM?$AAo?$AAd?$AAe?$AA?$AA@ 1002a504     ConEmuInjects.obj
 0002:00000528       ??_C@_1FG@GKBMDCCM@?$AAC?$AAo?$AAn?$AAE?$AAm?$AAu?$AAH?$AAk?$AA?5?$AAi?$AAs?$AA?5?$AAb?$AAr?$AAo?$AAk?$AAe?$AAn?$AA?0?$AA?5?$AAe?$AAx?$AAp?$AAo?$AAr?$AAt?$AA?5?$AA?$CI?$AA?$CF?$AAs?$AA?$CJ?$AA?5@ 1002a528     ConEmuInjects.obj
 0002:00000580       ??_C@_1CI@BCDIBFHK@?$AAE?$AAx?$AAt?$AAe?$AAn?$AAd?$AAe?$AAd?$AAC?$AAo?$AAn?$AAs?$AAo?$AAl?$AAe?$AA?4?$AAd?$AAl?$AAl?$AA?$AA@ 1002a580     ConEmuInjects.obj
 0002:000005a8       ??_C@_0BE@FDMAKOMB@SetHookCallbacksExt?$AA@ 1002a5a8     ConEmuInjects.obj
 0002:000005bc       ??_C@_1BK@MGMFAEKH@?$AAk?$AAe?$AAr?$AAn?$AAe?$AAl?$AA3?$AA2?$AA?4?$AAd?$AAl?$AAl?$AA?$AA@ 1002a5bc     ConEmuInjects.obj
 0002:000005d8       ??_C@_0M@LAGCIMKJ@FreeConsole?$AA@ 1002a5d8     ConEmuInjects.obj
 0002:000005e4       ??_C@_0N@MOGGHBHN@AllocConsole?$AA@ 1002a5e4     ConEmuInjects.obj
 0002:000005f4       ??_C@_0BC@BINPJBNK@PeekConsoleInputA?$AA@ 1002a5f4     ConEmuInjects.obj
 0002:00000608       ??_C@_0BC@EEHCEAN@PeekConsoleInputW?$AA@ 1002a608     ConEmuInjects.obj
 0002:0000061c       ??_C@_0BC@JNLCHFED@ReadConsoleInputA?$AA@ 1002a61c     ConEmuInjects.obj
 0002:00000630       ??_C@_0BC@IBCKMAJE@ReadConsoleInputW?$AA@ 1002a630     ConEmuInjects.obj
 0002:00000644       ??_C@_0BE@PKLMIEOM@WriteConsoleOutputA?$AA@ 1002a644     ConEmuInjects.obj
 0002:00000658       ??_C@_0BE@OGCEDBDL@WriteConsoleOutputW?$AA@ 1002a658     ConEmuInjects.obj
 0002:0000066c       ??_C@_0BO@HCPBIAL@GetNumberOfConsoleInputEvents?$AA@ 1002a66c     ConEmuInjects.obj
 0002:0000068c       ??_C@_1BI@BNFKGMFK@?$AAs?$AAh?$AAe?$AAl?$AAl?$AA3?$AA2?$AA?4?$AAd?$AAl?$AAl?$AA?$AA@ 1002a68c     ConEmuInjects.obj
 0002:000006a4       ??_C@_0BA@LIPPODFA@ShellExecuteExW?$AA@ 1002a6a4     ConEmuInjects.obj
 0002:000006b4       ??_C@_08BCACMCCB@ExitFARW?$AA@ 1002a6b4     ConEmuPlugin.obj
 0002:000006c0       ??_C@_0BE@PJBDJPG@ProcessEditorEventW?$AA@ 1002a6c0     ConEmuPlugin.obj
 0002:000006d4       ??_C@_0BE@OMPAFBFG@ProcessViewerEventW?$AA@ 1002a6d4     ConEmuPlugin.obj
 0002:000006e8       ??_C@_0BF@NLPJFAHE@ProcessSynchroEventW?$AA@ 1002a6e8     ConEmuPlugin.obj
 0002:00000700       ??_C@_1BA@JOPOJEME@?$AAE?$AAx?$AAi?$AAt?$AAF?$AAA?$AAR?$AA?$AA@ 1002a700     ConEmuPlugin.obj
 0002:00000710       ??_C@_1BO@LDDOEOAL@?$AAE?$AAx?$AAi?$AAt?$AAF?$AAA?$AAR?$AA?5?$AA?9?$AA?5?$AAd?$AAo?$AAn?$AAe?$AA?$AA@ 1002a710     ConEmuPlugin.obj
 0002:00000730       ??_C@_1BC@OCOOMPC@?$AAE?$AAx?$AAi?$AAt?$AAF?$AAA?$AAR?$AAW?$AA?$AA@ 1002a730     ConEmuPlugin.obj
 0002:00000744       ??_C@_1CA@IFHGCKFI@?$AAE?$AAx?$AAi?$AAt?$AAF?$AAA?$AAR?$AAW?$AA?5?$AA?9?$AA?5?$AAd?$AAo?$AAn?$AAe?$AA?$AA@ 1002a744     ConEmuPlugin.obj
 0002:00000764       ??_C@_1BE@GNKIHEAN@?$AAE?$AAx?$AAi?$AAt?$AAF?$AAA?$AAR?$AAW?$AA3?$AA?$AA@ 1002a764     ConEmuPlugin.obj
 0002:00000778       ??_C@_1CC@LCFMKIJA@?$AAE?$AAx?$AAi?$AAt?$AAF?$AAA?$AAR?$AAW?$AA3?$AA?5?$AA?9?$AA?5?$AAd?$AAo?$AAn?$AAe?$AA?$AA@ 1002a778     ConEmuPlugin.obj
 0002:0000079c       ??_C@_11LOCGONAA@?$AA?$AA@ 1002a79c     ConEmuPlugin1900.obj
 0002:000007a4       ??_7CPluginW1900@@6B@      1002a7a4     ConEmuPlugin1900.obj
 0002:00000838       ??_C@_0CC@LJLGMPJK@ConEmuPlugin?2ConEmuPlugin1900?4cp@ 1002a838     ConEmuPlugin1900.obj
 0002:0000085c       ??_C@_1O@PICBDAL@?$AAC?$AAo?$AAn?$AAE?$AAm?$AAu?$AA?$AA@ 1002a85c     ConEmuPlugin1900.obj
 0002:0000086c       ??_C@_1BK@BCDKFLCP@?$AAE?$AAx?$AAi?$AAt?$AAF?$AAA?$AAR?$AAW?$AA1?$AA9?$AA0?$AA0?$AA?$AA@ 1002a86c     ConEmuPlugin1900.obj
 0002:00000888       ??_C@_1CI@OHGGDAJD@?$AAE?$AAx?$AAi?$AAt?$AAF?$AAA?$AAR?$AAW?$AA1?$AA9?$AA0?$AA0?$AA?5?$AA?9?$AA?5?$AAd?$AAo?$AAn?$AAe?$AA?$AA@ 1002a888     ConEmuPlugin1900.obj
 0002:000008b0       ??_C@_1M@OKCNCBMD@?$AA$?$AAT?$AAE?$AAX?$AAT?$AA?$AA@ 1002a8b0     ConEmuPlugin1900.obj
 0002:000008bc       ??_C@_1O@BBPMHPCD@?$AAp?$AAr?$AAi?$AAn?$AAt?$AA?$CI?$AA?$AA@ 1002a8bc     ConEmuPlugin1900.obj
 0002:000008cc       ??_C@_19JPEEHMMI@?$AA?5?$AA?7?$AA?$AN?$AA?6?$AA?$AA@ 1002a8cc     ConEmuPlugin1900.obj
 0002:000008d8       ??_C@_1BC@OLJIBFPH@?$AA?0?$AA?5?$AAH?$AAi?$AAn?$AAt?$AA?3?$AA?5?$AA?$AA@ 1002a8d8     ConEmuPlugin1900.obj
 0002:000008f0       ??_C@_1BCK@MAAKAKN@?$AAE?$AAr?$AAr?$AAo?$AAr?$AA?5?$AAi?$AAn?$AA?5?$AAM?$AAa?$AAc?$AAr?$AAo?$AA?4?$AA?5?$AAF?$AAa?$AAr?$AA?5?$AA?$CF?$AAu?$AA?4?$AA?$CF?$AAu?$AA?5?$AAb?$AAu?$AAi?$AAl?$AAd?$AA?5@ 1002a8f0     ConEmuPlugin1900.obj
 0002:00000a20       ??_C@_1OK@GOJADEAC@?$AAE?$AAr?$AAr?$AAo?$AAr?$AA?5?$AAi?$AAn?$AA?5?$AAM?$AAa?$AAc?$AAr?$AAo?$AA?4?$AA?5?$AAF?$AAa?$AAr?$AA?5?$AA?$CF?$AAu?$AA?4?$AA?$CF?$AAu?$AA?5?$AAb?$AAu?$AAi?$AAl?$AAd?$AA?5@ 1002aa20     ConEmuPlugin1900.obj
 0002:00000b0c       ??_C@_0BF@MFOIGNA@BackgroundMacroError?$AA@ 1002ab0c     ConEmuPlugin1900.obj
 0002:00000b24       ??_C@_1BI@EKLHEFDO@?$AAS?$AAh?$AAo?$AAw?$AAM?$AAe?$AAn?$AAu?$AAB?$AAa?$AAr?$AA?$AA@ 1002ab24     ConEmuPlugin1900.obj
 0002:00000b3c       ??_C@_1O@PDEOIOBG@?$AAK?$AAe?$AAy?$AAB?$AAa?$AAr?$AA?$AA@ 1002ab3c     ConEmuPlugin1900.obj
 0002:00000b4c       ??_C@_1BK@MBFACEDG@?$AAC?$AAo?$AAl?$AAu?$AAm?$AAn?$AAT?$AAi?$AAt?$AAl?$AAe?$AAs?$AA?$AA@ 1002ab4c     ConEmuPlugin1900.obj
 0002:00000b68       ??_C@_1BG@MHMKAABO@?$AAS?$AAt?$AAa?$AAt?$AAu?$AAs?$AAL?$AAi?$AAn?$AAe?$AA?$AA@ 1002ab68     ConEmuPlugin1900.obj
 0002:00000b80       ??_C@_1BC@IALIJCAM@?$AAS?$AAo?$AAr?$AAt?$AAM?$AAo?$AAd?$AAe?$AA?$AA@ 1002ab80     ConEmuPlugin1900.obj
 0002:00000b94       ??_C@_1BK@BKCACCAI@?$AAW?$AAT?$AAY?$AAP?$AAE?$AA_?$AAP?$AAA?$AAN?$AAE?$AAL?$AAS?$AA?$AA@ 1002ab94     ConEmuPlugin1900.obj
 0002:00000bb0       ??_C@_1BK@LNCDOEEM@?$AAW?$AAT?$AAY?$AAP?$AAE?$AA_?$AAV?$AAI?$AAE?$AAW?$AAE?$AAR?$AA?$AA@ 1002abb0     ConEmuPlugin1900.obj
 0002:00000bcc       ??_C@_1BK@MHHDIBO@?$AAW?$AAT?$AAY?$AAP?$AAE?$AA_?$AAE?$AAD?$AAI?$AAT?$AAO?$AAR?$AA?$AA@ 1002abcc     ConEmuPlugin1900.obj
 0002:00000be8       ??_C@_1BK@NEJJBFEB@?$AAW?$AAT?$AAY?$AAP?$AAE?$AA_?$AAD?$AAI?$AAA?$AAL?$AAO?$AAG?$AA?$AA@ 1002abe8     ConEmuPlugin1900.obj
 0002:00000c04       ??_C@_1BI@IHGDMIGH@?$AAW?$AAT?$AAY?$AAP?$AAE?$AA_?$AAV?$AAM?$AAE?$AAN?$AAU?$AA?$AA@ 1002ac04     ConEmuPlugin1900.obj
 0002:00000c1c       ??_C@_1BG@LKGDBHML@?$AAW?$AAT?$AAY?$AAP?$AAE?$AA_?$AAH?$AAE?$AAL?$AAP?$AA?$AA@ 1002ac1c     ConEmuPlugin1900.obj
 0002:00000c34       ??_C@_1BA@LEPJIIOK@?$AAU?$AAn?$AAk?$AAn?$AAo?$AAw?$AAn?$AA?$AA@ 1002ac34     ConEmuPlugin1900.obj
 0002:00000c44       ??_C@_1CE@PEOBLGJK@?$AAC?$AAo?$AAn?$AAE?$AAm?$AAu?$AAM?$AAa?$AAc?$AAr?$AAo?$AAR?$AAe?$AAs?$AAu?$AAl?$AAt?$AA?$AA@ 1002ac44     ConEmuPlugin1900.obj
 0002:00000c68       ??_C@_1BO@HNJMHBAE@?$AAC?$AAo?$AAn?$AAE?$AAm?$AAu?$AAG?$AAu?$AAi?$AAM?$AAa?$AAc?$AAr?$AAo?$AA?$AA@ 1002ac68     ConEmuPlugin1900.obj
 0002:00000c90       __xmm@00000000000000020000000500000000 1002ac90     ConEmuPlugin1900.obj
 0002:00000ca0       __xmm@00000000000000040000000500000000 1002aca0     ConEmuPlugin1900.obj
 0002:00000cb0       __xmm@00000000000000070000000000000007 1002acb0     ConEmuPlugin1900.obj
 0002:00000cc0       __xmm@00000046000000030000000500000004 1002acc0     ConEmuPlugin1900.obj
 0002:00000cd0       __xmm@00000046000000050000000500000004 1002acd0     ConEmuPlugin1900.obj
 0002:00000ce0       __xmm@00000048000000010000000300000003 1002ace0     ConEmuPlugin1900.obj
 0002:00000cf4       ??_7CPluginW2800@@6B@      1002acf4     ConEmuPlugin2800.obj
 0002:00000d88       ??_C@_1DO@JIOAOHCJ@?$AAC?$AAo?$AAn?$AAE?$AAm?$AAu?$AA?5?$AAs?$AAu?$AAp?$AAp?$AAo?$AAr?$AAt?$AA?5?$AAf?$AAo?$AAr?$AA?5?$AAF?$AAa?$AAr?$AA?5?$AAM?$AAa?$AAn?$AAa?$AAg?$AAe?$AAr?$AA?$AA@ 1002ad88     ConEmuPlugin2800.obj
 0002:00000dc8       ??_C@_1DE@DJEAMLPH@?$AAC?$AAo?$AAn?$AAE?$AAm?$AAu?$AA?4?$AAM?$AAa?$AAx?$AAi?$AAm?$AAu?$AAs?$AA5?$AA?$EA?$AAg?$AAm?$AAa?$AAi?$AAl?$AA?4?$AAc?$AAo?$AAm?$AA?$AA@ 1002adc8     ConEmuPlugin2800.obj
 0002:00000dfc       ??_C@_0CC@EMJBPDMB@ConEmuPlugin?2ConEmuPlugin2800?4cp@ 1002adfc     ConEmuPlugin2800.obj
 0002:00000e20       ??_C@_17IOMHDNEC@?$AAf?$AAa?$AAr?$AA?$AA@ 1002ae20     ConEmuPlugin2800.obj
 0002:00000e28       ??_C@_1BK@DFKHOALC@?$AAE?$AAx?$AAi?$AAt?$AAF?$AAA?$AAR?$AAW?$AA2?$AA8?$AA0?$AA0?$AA?$AA@ 1002ae28     ConEmuPlugin2800.obj
 0002:00000e44       ??_C@_1CI@KIFAPNHL@?$AAE?$AAx?$AAi?$AAt?$AAF?$AAA?$AAR?$AAW?$AA2?$AA8?$AA0?$AA0?$AA?5?$AA?9?$AA?5?$AAd?$AAo?$AAn?$AAe?$AA?$AA@ 1002ae44     ConEmuPlugin2800.obj
 0002:00000e70       ??_C@_1BCK@KGGLGNDM@?$AAE?$AAr?$AAr?$AAo?$AAr?$AA?5?$AAi?$AAn?$AA?5?$AAM?$AAa?$AAc?$AAr?$AAo?$AA?4?$AA?5?$AAF?$AAa?$AAr?$AA?5?$AA?$CF?$AAu?$AA?4?$AA?$CF?$AAu?$AA?5?$AAb?$AAu?$AAi?$AAl?$AAd?$AA?5@ 1002ae70     ConEmuPlugin2800.obj
 0002:00000fa0       ??_C@_1OK@MGLNOED@?$AAE?$AAr?$AAr?$AAo?$AAr?$AA?5?$AAi?$AAn?$AA?5?$AAM?$AAa?$AAc?$AAr?$AAo?$AA?4?$AA?5?$AAF?$AAa?$AAr?$AA?5?$AA?$CF?$AAu?$AA?4?$AA?$CF?$AAu?$AA?5?$AAb?$AAu?$AAi?$AAl?$AAd?$AA?5@ 1002afa0     ConEmuPlugin2800.obj
 0002:00001090       ??_C@_0EB@JOICDPON@t?3?2vcproject?2maximus5?2conemu?2src@ 1002b090     ConEmuPlugin2800.obj
 0002:000010e0       __xmm@cccccccc000000000000000000000028 1002b0e0     ConEmuPlugin2800.obj
 0002:000010f4       ??_7CPluginW995@@6B@       1002b0f4     ConEmuPlugin995.obj
 0002:00001188       ??_C@_0CB@KLPINMGG@ConEmuPlugin?2ConEmuPlugin995?4cpp@ 1002b188     ConEmuPlugin995.obj
 0002:000011ac       ??_C@_1BI@IBAPHBGL@?$AAE?$AAx?$AAi?$AAt?$AAF?$AAA?$AAR?$AAW?$AA9?$AA9?$AA5?$AA?$AA@ 1002b1ac     ConEmuPlugin995.obj
 0002:000011c4       ??_C@_1CG@PKCNLDOL@?$AAE?$AAx?$AAi?$AAt?$AAF?$AAA?$AAR?$AAW?$AA9?$AA9?$AA5?$AA?5?$AA?9?$AA?5?$AAd?$AAo?$AAn?$AAe?$AA?$AA@ 1002b1c4     ConEmuPlugin995.obj
 0002:000011f0       __xmm@00000000000000000000000000000005 1002b1f0     ConEmuPlugin995.obj
 0002:00001200       __xmm@00000000000000000000000000000006 1002b200     ConEmuPlugin995.obj
 0002:00001210       __xmm@00000000000000020000000000000007 1002b210     ConEmuPlugin995.obj
 0002:00001220       __xmm@00000033000000010000000300000003 1002b220     ConEmuPlugin995.obj
 0002:00001230       ??_C@_00CNPNBAHC@?$AA@     1002b230     ConEmuPluginA.obj
 0002:00001238       ??_7CPluginAnsi@@6B@       1002b238     ConEmuPluginA.obj
 0002:000012cc       ??_C@_1O@BKFLFFPA@?$AAP?$AAl?$AAu?$AAg?$AAi?$AAn?$AA?$AA@ 1002b2cc     ConEmuPluginA.obj
 0002:000012dc       ??_C@_0BP@LEOJBAFN@ConEmuPlugin?2ConEmuPluginA?4cpp?$AA@ 1002b2dc     ConEmuPluginA.obj
 0002:000012fc       ??_C@_06HGFNEGAJ@ConEmu?$AA@ 1002b2fc     ConEmuPluginA.obj
 0002:00001304       ??_C@_0DI@NFIKKEHF@t?3?2vcproject?2maximus5?2conemu?2src@ 1002b304     ConEmuPluginA.obj
 0002:0000133c       ??_C@_0P@DFGMHJNG@ConEmuGuiMacro?$AA@ 1002b33c     ConEmuPluginA.obj
 0002:00001350       ??_7CPluginBase@@6B@       1002b350     ConEmuPluginBase.obj
 0002:000013e8       ??_C@_0EF@HKNKEEFC@t?3?2vcproject?2maximus5?2conemu?2src@ 1002b3e8     ConEmuPluginBase.obj
 0002:00001430       ??_C@_13FPGAJAPJ@?$AA?2?$AA?$AA@ 1002b430     ConEmuPluginBase.obj
 0002:00001438       ??_C@_1FG@DPPGENBC@?$AAL?$AAo?$AAa?$AAd?$AAA?$AAp?$AAp?$AAV?$AAe?$AAr?$AAs?$AAi?$AAo?$AAn?$AA?4?$AAV?$AAe?$AAr?$AAQ?$AAu?$AAe?$AAr?$AAy?$AAV?$AAa?$AAl?$AAu?$AAe?$AA?$CI?$AA?$CC?$AA?2?$AA?$CC@ 1002b438     ConEmuPluginBase.obj
 0002:00001490       ??_C@_1FK@HILEEFML@?$AAL?$AAo?$AAa?$AAd?$AAA?$AAp?$AAp?$AAV?$AAe?$AAr?$AAs?$AAi?$AAo?$AAn?$AA?4?$AAG?$AAe?$AAt?$AAF?$AAi?$AAl?$AAe?$AAV?$AAe?$AAr?$AAs?$AAi?$AAo?$AAn?$AAI?$AAn?$AAf@ 1002b490     ConEmuPluginBase.obj
 0002:000014f0       ??_C@_1GC@BINFLBDC@?$AAL?$AAo?$AAa?$AAd?$AAA?$AAp?$AAp?$AAV?$AAe?$AAr?$AAs?$AAi?$AAo?$AAn?$AA?5?$AAf?$AAa?$AAi?$AAl?$AAe?$AAd?$AA?$CB?$AA?5?$AAC?$AAa?$AAn?$AA?8?$AAt?$AA?5?$AAa?$AAl?$AAl@ 1002b4f0     ConEmuPluginBase.obj
 0002:00001558       ??_C@_1GC@CPPHDKJK@?$AAL?$AAo?$AAa?$AAd?$AAA?$AAp?$AAp?$AAV?$AAe?$AAr?$AAs?$AAi?$AAo?$AAn?$AA?4?$AAG?$AAe?$AAt?$AAF?$AAi?$AAl?$AAe?$AAV?$AAe?$AAr?$AAs?$AAi?$AAo?$AAn?$AAI?$AAn?$AAf@ 1002b558     ConEmuPluginBase.obj
 0002:000015c0       ??_C@_1EG@IINOBDEG@?$AAI?$AAn?$AAv?$AAa?$AAl?$AAi?$AAd?$AA?5?$AAa?$AAs?$AAM?$AAo?$AAd?$AAu?$AAl?$AAe?$AAP?$AAa?$AAt?$AAh?$AA?5?$AAw?$AAa?$AAs?$AA?5?$AAs?$AAp?$AAe?$AAc?$AAi?$AAf?$AAi@ 1002b5c0     ConEmuPluginBase.obj
 0002:00001608       ??_C@_1CA@GGFPMHLH@?$AA?6?$AAE?$AAr?$AAr?$AAC?$AAo?$AAd?$AAe?$AA?$DN?$AA0?$AAx?$AA?$CF?$AA0?$AA8?$AAX?$AA?$AA@ 1002b608     ConEmuPluginBase.obj
 0002:00001628       ??_C@_1FG@LNADFPCE@?$AAL?$AAo?$AAa?$AAd?$AAF?$AAa?$AAr?$AAV?$AAe?$AAr?$AAs?$AAi?$AAo?$AAn?$AA?4?$AAG?$AAe?$AAt?$AAM?$AAo?$AAd?$AAu?$AAl?$AAe?$AAF?$AAi?$AAl?$AAe?$AAN?$AAa?$AAm?$AAe@ 1002b628     ConEmuPluginBase.obj
 0002:00001680       ??_C@_0BP@OODKCJPP@Wow64DisableWow64FsRedirection?$AA@ 1002b680     ConEmuPluginBase.obj
 0002:000016a0       ??_C@_0BO@KOCOEJCM@Wow64RevertWow64FsRedirection?$AA@ 1002b6a0     ConEmuPluginBase.obj
 0002:000016c0       ??_C@_1BG@NBIHKCLP@?$AAC?$AAo?$AAn?$AAE?$AAm?$AAu?$AA?4?$AAd?$AAl?$AAl?$AA?$AA@ 1002b6c0     ConEmuPluginBase.obj
 0002:000016d8       ??_C@_1IA@EGLJCBKE@?$AAS?$AAy?$AAn?$AAc?$AAh?$AAo?$AA?5?$AAe?$AAv?$AAe?$AAn?$AAt?$AAs?$AA?5?$AAa?$AAr?$AAe?$AA?5?$AAp?$AAe?$AAn?$AAd?$AAi?$AAn?$AAg?$AA?$CB?$AA?6?$AAF?$AAa?$AAr?$AA?5?$AAm@ 1002b6d8     ConEmuPluginBase.obj
 0002:00001758       ??_C@_1BO@ONHPLONP@?$AAC?$AAo?$AAn?$AAE?$AAm?$AAu?$AA?4?$AAx?$AA6?$AA4?$AA?4?$AAd?$AAl?$AAl?$AA?$AA@ 1002b758     ConEmuPluginBase.obj
 0002:00001778       ??_C@_13LBAGMAIH@?$AA?6?$AA?$AA@ 1002b778     ConEmuPluginBase.obj
 0002:00001780       ??_C@_1PO@CKPDODMD@?$AAS?$AAe?$AAv?$AAe?$AAr?$AAa?$AAl?$AA?5?$AAi?$AAn?$AAs?$AAt?$AAa?$AAn?$AAc?$AAe?$AAs?$AA?5?$AAo?$AAf?$AA?5?$AAC?$AAo?$AAn?$AAE?$AAm?$AAu?$AA?5?$AAp?$AAl?$AAu?$AAg@ 1002b780     ConEmuPluginBase.obj
 0002:00001880       ??_C@_13IMODFHAA@?$AA?9?$AA?$AA@ 1002b880     ConEmuPluginBase.obj
 0002:00001888       ??_C@_1FI@CBKBKFFI@?$AAC?$AAo?$AAn?$AAE?$AAm?$AAu?$AA?5?$AAp?$AAl?$AAu?$AAg?$AAi?$AAn?$AA?5?$AA?$CF?$AA0?$AA2?$AAu?$AA?$CF?$AA0?$AA2?$AAu?$AA?$CF?$AA0?$AA2?$AAu?$AA?$CF?$AAs?$AA?$CF?$AAs?$AA?$FL?$AA?$CF@ 1002b888     ConEmuPluginBase.obj
 0002:000018e0       ??_C@_1BG@DILNIJHK@?$AA?$DM?$AAM?$AAs?$AAg?$AAI?$AAD?$AA?$DN?$AA?$CF?$AAi?$AA?$DO?$AA?$AA@ 1002b8e0     ConEmuPluginBase.obj
 0002:000018f8       ??_C@_0CC@NPPLCOFJ@ConEmuPlugin?2ConEmuPluginBase?4cp@ 1002b8f8     ConEmuPluginBase.obj
 0002:00001920       ??_C@_1PO@DJAPICLP@?$AA$?$AAi?$AAf?$AA?5?$AA?$CI?$AA?$CB?$AAE?$AAd?$AAi?$AAt?$AAo?$AAr?$AA?5?$AA?$CG?$AA?$CG?$AA?5?$AA?$CB?$AAV?$AAi?$AAe?$AAw?$AAe?$AAr?$AA?$CJ?$AA?5?$AA$?$AAi?$AAf?$AA?5?$AA?$CI?$AA?$CB?$AAA@ 1002b920     ConEmuPluginBase.obj
 0002:00001a20       ??_C@_1EK@LJEKIKEG@?$AA4?$AAb?$AA6?$AA7?$AA5?$AAd?$AA8?$AA0?$AA?9?$AA1?$AAd?$AA4?$AAa?$AA?9?$AA4?$AAe?$AAa?$AA9?$AA?9?$AA8?$AA4?$AA3?$AA6?$AA?9?$AAf?$AAd?$AAc?$AA2?$AA3?$AAf?$AA2?$AAf@ 1002ba20     ConEmuPluginBase.obj
 0002:00001a70       ??_C@_1BBO@FBOKPEBF@?$AA$?$AAi?$AAf?$AA?5?$AA?$CI?$AAA?$AAP?$AAa?$AAn?$AAe?$AAl?$AA?4?$AAP?$AAl?$AAu?$AAg?$AAi?$AAn?$AA?$CJ?$AA?5?$AA?$CF?$AA?$CF?$AAA?$AA?$DN?$AA?$CC?$AA?$CC?$AA?$DL?$AA?5?$AA$?$AAe?$AAl?$AAs@ 1002ba70     ConEmuPluginBase.obj
 0002:00001b90       ??_C@_1LO@GJMEBJHL@?$AAP?$AAl?$AAu?$AAg?$AAi?$AAn?$AA?4?$AAC?$AAa?$AAl?$AAl?$AA?$CI?$AA?$CC?$AA?$CF?$AAs?$AA?$CC?$AA?0?$AA?$CF?$AAi?$AA?0?$AAA?$AAP?$AAa?$AAn?$AAe?$AAl?$AA?4?$AAP?$AAl?$AAu?$AAg?$AAi@ 1002bb90     ConEmuPluginBase.obj
 0002:00001c50       ??_C@_1BA@CMKDJLHG@?$AA?$HN?$AA?5?$AA?9?$AA?5?$AAF?$AAa?$AAr?$AA?$AA@ 1002bc50     ConEmuPluginBase.obj
 0002:00001c60       ??_C@_17MEJHPLBO@?$AAc?$AAm?$AAd?$AA?$AA@ 1002bc60     ConEmuPluginBase.obj
 0002:00001c68       ??_C@_1CK@KEKIDABI@?$AAC?$AAo?$AAn?$AAE?$AAm?$AAu?$AA?4?$AAC?$AAr?$AAe?$AAa?$AAt?$AAe?$AAP?$AAr?$AAo?$AAc?$AAe?$AAs?$AAs?$AA?$AA@ 1002bc68     ConEmuPluginBase.obj
 0002:00001c94       ??_C@_1CM@MHCEHIEP@?$AAS?$AAt?$AAa?$AAr?$AAt?$AA?5?$AAc?$AAo?$AAn?$AAs?$AAo?$AAl?$AAe?$AA?5?$AAp?$AAr?$AAo?$AAg?$AAr?$AAa?$AAm?$AA?$AA@ 1002bc94     ConEmuPluginBase.obj
 0002:00001cc0       ??_C@_17BJPFHBEJ@?$AAC?$AA?3?$AA?2?$AA?$AA@ 1002bcc0     ConEmuPluginBase.obj
 0002:00001cc8       ??_C@_1BK@NEALEMPH@?$AA?9?$AAn?$AAe?$AAw?$AA_?$AAc?$AAo?$AAn?$AAs?$AAo?$AAl?$AAe?$AA?$AA@ 1002bcc8     ConEmuPluginBase.obj
 0002:00001ce4       ??_C@_19KHBBCLDH@?$AAr?$AAu?$AAn?$AA?3?$AA?$AA@ 1002bce4     ConEmuPluginBase.obj
 0002:00001cf0       ??_C@_13DANNHAJN@?$AAV?$AA?$AA@ 1002bcf0     ConEmuPluginBase.obj
 0002:00001cf4       ??_C@_13IABLFADB@?$AAH?$AA?$AA@ 1002bcf4     ConEmuPluginBase.obj
 0002:00001cf8       ??_C@_17PBAHFJOA@?$AAY?$AAe?$AAs?$AA?$AA@ 1002bcf8     ConEmuPluginBase.obj
 0002:00001d00       ??_C@_15BICKNCBF@?$AAN?$AAo?$AA?$AA@ 1002bd00     ConEmuPluginBase.obj
 0002:00001d08       ??_C@_1BPK@LEDPNENO@?$AAC?$AAo?$AAn?$AAE?$AAm?$AAu?$AA?5?$AAC?$AAo?$AAn?$AAs?$AAo?$AAl?$AAe?$AA?5?$AAi?$AAn?$AAf?$AAo?$AAr?$AAm?$AAa?$AAt?$AAi?$AAo?$AAn?$AA?6?$AAT?$AAe?$AAr?$AAm?$AAi@ 1002bd08     ConEmuPluginBase.obj
 0002:00001f04       ??_C@_1BM@MGPNCPCE@?$AAC?$AAo?$AAn?$AAE?$AAm?$AAu?$AAB?$AAa?$AAs?$AAe?$AAD?$AAi?$AAr?$AA?$AA@ 1002bf04     ConEmuPluginBase.obj
 0002:00001f20       ??_C@_1BK@PCAIPEAH@?$AA?2?$AAC?$AAo?$AAn?$AAE?$AAm?$AAu?$AAC?$AA?4?$AAe?$AAx?$AAe?$AA?$AA@ 1002bf20     ConEmuPluginBase.obj
 0002:00001f3c       ??_C@_1CI@DIEJPMOK@?$AA?2?$AAC?$AAo?$AAn?$AAE?$AAm?$AAu?$AA?2?$AAC?$AAo?$AAn?$AAE?$AAm?$AAu?$AAC?$AA?4?$AAe?$AAx?$AAe?$AA?$AA@ 1002bf3c     ConEmuPluginBase.obj
 0002:00001f68       ??_C@_1HI@LCPDMAIJ@?$AA?$CC?$AA?$CF?$AAs?$AA?$CC?$AA?5?$AA?1?$AAA?$AAT?$AAT?$AAA?$AAC?$AAH?$AA?5?$AA?1?$AAR?$AAO?$AAO?$AAT?$AA?5?$AA?$CC?$AA?$CF?$AAs?$AA?$CC?$AA?5?$AA?1?$AAD?$AAE?$AAB?$AAU?$AAG?$AAP?$AAI@ 1002bf68     ConEmuPluginBase.obj
 0002:00001fe0       ??_C@_1FC@DNELIAOB@?$AA?$CC?$AA?$CF?$AAs?$AA?$CC?$AA?5?$AA?1?$AAD?$AAE?$AAB?$AAU?$AAG?$AAP?$AAI?$AAD?$AA?$DN?$AA?$CF?$AAi?$AA?5?$AA?1?$AAB?$AAW?$AA?$DN?$AA?$CF?$AAi?$AA?5?$AA?1?$AAB?$AAH?$AA?$DN?$AA?$CF?$AAi?$AA?5@ 1002bfe0     ConEmuPluginBase.obj
 0002:00002034       ??_C@_1BM@JNIGIIH@?$AA?2?$AAC?$AAo?$AAn?$AAE?$AAm?$AAu?$AAH?$AAk?$AA?4?$AAd?$AAl?$AAl?$AA?$AA@ 1002c034     ConEmuPluginBase.obj
 0002:00002050       ??_C@_1BI@OPBAAHCM@?$AAC?$AAo?$AAn?$AAE?$AAm?$AAu?$AAC?$AA?4?$AAe?$AAx?$AAe?$AA?$AA@ 1002c050     ConEmuPluginBase.obj
 0002:00002068       ??_C@_1BE@FFPCKGKG@?$AA?1?$AAC?$AAO?$AAN?$AAF?$AAI?$AAR?$AAM?$AA?5?$AA?$AA@ 1002c068     ConEmuPluginBase.obj
 0002:0000207c       ??_C@_1DA@LLHOBAFM@?$AA?$CC?$AA?5?$AA?1?$AAA?$AAT?$AAT?$AAA?$AAC?$AAH?$AA?5?$AA?1?$AAF?$AAA?$AAR?$AAP?$AAI?$AAD?$AA?$DN?$AA?$CF?$AAi?$AA?5?$AA?$CF?$AAs?$AA?$AA@ 1002c07c     ConEmuPluginBase.obj
 0002:000020ac       ??_C@_1BA@JLPJLFMH@?$AA?1?$AAG?$AAI?$AAD?$AA?$DN?$AA?$CF?$AAi?$AA?$AA@ 1002c0ac     ConEmuPluginBase.obj
 0002:000020bc       ??_C@_1CI@EIEAGHGL@?$AAC?$AAo?$AAn?$AAE?$AAm?$AAu?$AAS?$AAr?$AAv?$AAS?$AAt?$AAa?$AAr?$AAt?$AAe?$AAd?$AA?4?$AA?$CF?$AAu?$AA?$AA@ 1002c0bc     ConEmuPluginBase.obj
 0002:000020e4       ??_C@_0BD@DHBGKFD@RequestLocalServer?$AA@ 1002c0e4     ConEmuPluginBase.obj
 0002:000020f8       ??_C@_17LCEPOKH@?$AAC?$AAE?$AAM?$AA?$AA@ 1002c0f8     ConEmuPluginBase.obj
 0002:00002100       ??_C@_19LKKOIHJI@?$AA?4?$AAt?$AAm?$AAp?$AA?$AA@ 1002c100     ConEmuPluginBase.obj
 0002:00002110       ??_C@_1BFI@CAKBMDAF@?$AAW?$AAr?$AAo?$AAn?$AAg?$AA?5?$AAp?$AAl?$AAu?$AAg?$AAi?$AAn?$AA?5?$AAv?$AAe?$AAr?$AAs?$AAi?$AAo?$AAn?$AA?5?$AAw?$AAa?$AAs?$AA?5?$AAl?$AAo?$AAa?$AAd?$AAe?$AAd?$AA?5@ 1002c110     ConEmuPluginBase.obj
 0002:00002268       ??_C@_1BA@DAHNNHGF@?$AAF?$AAA?$AAR?$AAL?$AAA?$AAN?$AAG?$AA?$AA@ 1002c268     ConEmuPluginBase.obj
 0002:00002278       ??_C@_1EA@BFFHMENH@?$AAC?$AAo?$AAn?$AAE?$AAm?$AAu?$AAC?$AA?3?$AA?5?$AAC?$AAh?$AAe?$AAc?$AAk?$AAR?$AAe?$AAs?$AAo?$AAu?$AAr?$AAc?$AAe?$AAs?$AA?5?$AAs?$AAt?$AAa?$AAr?$AAt?$AAe?$AAd?$AA?$AA@ 1002c278     ConEmuPluginBase.obj
 0002:000022b8       ??_C@_19LELMJPKF@?$AAe?$AAd?$AAi?$AAt?$AA?$AA@ 1002c2b8     ConEmuPluginBase.obj
 0002:000022c4       ??_C@_19IGFHNPAK@?$AAv?$AAi?$AAe?$AAw?$AA?$AA@ 1002c2c4     ConEmuPluginBase.obj
 0002:000022d0       ??_C@_1CC@IHNECLD@?$AA?$HL?$AAT?$AAe?$AAm?$AAp?$AAo?$AAr?$AAa?$AAr?$AAy?$AA?5?$AAp?$AAa?$AAn?$AAe?$AAl?$AA?$AA@ 1002c2d0     ConEmuPluginBase.obj
 0002:000022f4       ??_C@_1CO@ELKEEMPJ@?$AAC?$AAo?$AAn?$AAE?$AAm?$AAu?$AAF?$AAi?$AAl?$AAe?$AAM?$AAa?$AAp?$AAp?$AAi?$AAn?$AAg?$AA?4?$AA?$CF?$AA0?$AA8?$AAX?$AA?$AA@ 1002c2f4     ConEmuPluginBase.obj
 0002:00002324       ??_C@_1BI@ENONIIIC@?$AAF?$AAa?$AAr?$AA?5?$AAM?$AAa?$AAn?$AAa?$AAg?$AAe?$AAr?$AA?$AA@ 1002c324     ConEmuPluginBase.obj
 0002:0000233c       ??_C@_19HBICLLML@?$AAF?$AAA?$AAR?$AA2?$AA?$AA@ 1002c33c     ConEmuPluginBase.obj
 0002:00002348       ??_C@_17NACPPFBM@?$AAF?$AAA?$AAR?$AA?$AA@ 1002c348     ConEmuPluginBase.obj
 0002:00002350       ??_C@_1BA@NIFIBMHP@?$AAF?$AAA?$AAR?$AAU?$AAS?$AAE?$AAR?$AA?$AA@ 1002c350     ConEmuPluginBase.obj
 0002:00002360       ??_C@_1BA@FJJFMPFO@?$AA?2?$AAU?$AAs?$AAe?$AAr?$AAs?$AA?2?$AA?$AA@ 1002c360     ConEmuPluginBase.obj
 0002:00002370       ??_C@_1BE@FLHKCJKF@?$AAS?$AAo?$AAf?$AAt?$AAw?$AAa?$AAr?$AAe?$AA?2?$AA?$AA@ 1002c370     ConEmuPluginBase.obj
 0002:00002384       ??_C@_1CG@HOMCPCN@?$AA?2?$AAP?$AAl?$AAu?$AAg?$AAi?$AAn?$AAs?$AA?2?$AAP?$AAa?$AAn?$AAe?$AAl?$AAT?$AAa?$AAb?$AAs?$AA?$AA@ 1002c384     ConEmuPluginBase.obj
 0002:000023ac       ??_C@_1BK@NFAPLMGI@?$AAS?$AAe?$AAp?$AAa?$AAr?$AAa?$AAt?$AAe?$AAT?$AAa?$AAb?$AAs?$AA?$AA@ 1002c3ac     ConEmuPluginBase.obj
 0002:000023c8       ??_C@_1BI@GILFJGEK@?$AAB?$AAu?$AAt?$AAt?$AAo?$AAn?$AAC?$AAo?$AAl?$AAo?$AAr?$AA?$AA@ 1002c3c8     ConEmuPluginBase.obj
 0002:000023e0       ??_C@_1DE@DBNFJOHM@?$AAC?$AAo?$AAn?$AAs?$AAo?$AAl?$AAe?$AA2?$AA_?$AAc?$AAo?$AAn?$AAs?$AAo?$AAl?$AAe?$AAB?$AAu?$AAf?$AAf?$AAe?$AAr?$AA_?$AA?$CF?$AAd?$AA?$AA@ 1002c3e0     ConEmuPluginBase.obj
 0002:00002414       ??_C@_1CK@EANOIBDN@?$AAC?$AAo?$AAn?$AAE?$AAm?$AAu?$AAC?$AAt?$AAr?$AAl?$AAP?$AAr?$AAe?$AAs?$AAs?$AAe?$AAd?$AA?4?$AA?$CF?$AAu?$AA?$AA@ 1002c414     ConEmuPluginBase.obj
 0002:00002440       ??_C@_1CM@JBFABNEO@?$AAC?$AAo?$AAn?$AAE?$AAm?$AAu?$AAS?$AAh?$AAi?$AAf?$AAt?$AAP?$AAr?$AAe?$AAs?$AAs?$AAe?$AAd?$AA?4?$AA?$CF?$AAu?$AA?$AA@ 1002c440     ConEmuPluginBase.obj
 0002:0000246c       ??_C@_1CE@DLFCKCF@?$AAC?$AAo?$AAn?$AAE?$AAm?$AAu?$AAT?$AAa?$AAb?$AAs?$AAC?$AAh?$AAa?$AAn?$AAg?$AAe?$AAd?$AA?$AA@ 1002c46c     ConEmuPluginBase.obj
 0002:00002490       ??_C@_0BG@HFNJBNKJ@Plugin?3?3MonitorThread?$AA@ 1002c490     ConEmuPluginBase.obj
 0002:000024a8       ??_C@_1BG@OILDLIOJ@?$AAu?$AAs?$AAe?$AAr?$AA3?$AA2?$AA?4?$AAd?$AAl?$AAl?$AA?$AA@ 1002c4a8     ConEmuPluginBase.obj
 0002:000024c0       ??_C@_0BJ@GFJHAGKD@AllowSetForegroundWindow?$AA@ 1002c4c0     ConEmuPluginBase.obj
 0002:000024dc       ??_C@_1BK@HOIBFEDE@?$AAC?$AAo?$AAn?$AAE?$AAm?$AAu?$AAC?$AAD?$AA?4?$AAd?$AAl?$AAl?$AA?$AA@ 1002c4dc     ConEmuPluginBase.obj
 0002:000024f8       ??_C@_1HO@CHHOFADM@?$AAC?$AAo?$AAn?$AAs?$AAo?$AAl?$AAe?$AA?5?$AAw?$AAa?$AAs?$AA?5?$AAa?$AAb?$AAn?$AAo?$AAr?$AAm?$AAa?$AAl?$AAl?$AAy?$AA?5?$AAt?$AAe?$AAr?$AAm?$AAi?$AAn?$AAt?$AAa?$AAt@ 1002c4f8     ConEmuPluginBase.obj
 0002:00002578       ??_C@_1NC@MNABBPPB@?$AA$?$AAi?$AAf?$AA?5?$AA?$CI?$AAS?$AAe?$AAa?$AAr?$AAc?$AAh?$AA?$CJ?$AA?5?$AAE?$AAs?$AAc?$AA?5?$AA$?$AAe?$AAn?$AAd?$AA?5?$AA$?$AAi?$AAf?$AA?5?$AA?$CI?$AAS?$AAh?$AAe?$AAl?$AAl@ 1002c578     ConEmuPluginBase.obj
 0002:00002650       ??_C@_1MK@EDFFIGHJ@?$AA$?$AAi?$AAf?$AA?5?$AA?$CI?$AAS?$AAe?$AAa?$AAr?$AAc?$AAh?$AA?$CJ?$AA?5?$AAE?$AAs?$AAc?$AA?5?$AA$?$AAe?$AAn?$AAd?$AA?5?$AA$?$AAi?$AAf?$AA?5?$AA?$CI?$AAS?$AAh?$AAe?$AAl?$AAl@ 1002c650     ConEmuPluginBase.obj
 0002:00002720       ??_C@_1BBA@LKLGFJB@?$AAi?$AAf?$AA?5?$AAA?$AAr?$AAe?$AAa?$AA?4?$AAS?$AAe?$AAa?$AAr?$AAc?$AAh?$AA?5?$AAt?$AAh?$AAe?$AAn?$AA?5?$AAK?$AAe?$AAy?$AAs?$AA?$CI?$AA?$CC?$AAE?$AAs?$AAc?$AA?$CC?$AA?$CJ?$AA?5@ 1002c720     ConEmuPluginBase.obj
 0002:00002830       ??_C@_0P@LNKHCDND@OnConEmuLoaded?$AA@ 1002c830     ConEmuPluginBase.obj
 0002:00002840       ??_C@_0BA@IDLLFCLM@SetStartupInfoW?$AA@ 1002c840     ConEmuPluginBase.obj
 0002:00002850       ??_C@_0P@JNNILPEA@SetStartupInfo?$AA@ 1002c850     ConEmuPluginBase.obj
 0002:00002860       ??_C@_1BC@GNOFNJJG@?$AAM?$AAs?$AAL?$AAC?$AAl?$AAi?$AAc?$AAk?$AA?$AA@ 1002c860     ConEmuPluginBase.obj
 0002:00002874       ??_C@_1CC@DFJIOIPL@?$AAK?$AAe?$AAy?$AAs?$AA?$CI?$AA?8?$AAM?$AAs?$AAL?$AAC?$AAl?$AAi?$AAc?$AAk?$AA?8?$AA?$CJ?$AA?$AA@ 1002c874     ConEmuPluginBase.obj
 0002:00002898       ??_C@_1CM@IICFOBPI@?$AA$?$AAi?$AAf?$AA?5?$AA?$CI?$AAS?$AAe?$AAa?$AAr?$AAc?$AAh?$AA?$CJ?$AA?5?$AAE?$AAs?$AAc?$AA?5?$AA$?$AAe?$AAn?$AAd?$AA?$AA@ 1002c898     ConEmuPluginBase.obj
 0002:000028c4       ??_C@_1DO@LEFBPADB@?$AAi?$AAf?$AA?5?$AAA?$AAr?$AAe?$AAa?$AA?4?$AAS?$AAe?$AAa?$AAr?$AAc?$AAh?$AA?5?$AAK?$AAe?$AAy?$AAs?$AA?$CI?$AA?$CC?$AAE?$AAs?$AAc?$AA?$CC?$AA?$CJ?$AA?5?$AAe?$AAn?$AAd?$AA?$AA@ 1002c8c4     ConEmuPluginBase.obj
 0002:00002908       ??_C@_1CCO@OMFPMNEO@?$AA?$EA?$AAi?$AAf?$AA?5?$AAn?$AAo?$AAt?$AA?5?$AAC?$AAm?$AAd?$AAL?$AAi?$AAn?$AAe?$AA?4?$AAE?$AAm?$AAp?$AAt?$AAy?$AA?5?$AAt?$AAh?$AAe?$AAn?$AA?5?$AAF?$AAl?$AAg?$AA_?$AAC@ 1002c908     ConEmuPluginBase.obj
 0002:00002b38       ??_C@_1CAM@BBLMGMFK@?$AA?$EA?$AA$?$AAI?$AAf?$AA?5?$AA?$CI?$AA?$CB?$AAC?$AAm?$AAd?$AAL?$AAi?$AAn?$AAe?$AA?4?$AAE?$AAm?$AAp?$AAt?$AAy?$AA?$CJ?$AA?5?$AA?$CF?$AAF?$AAl?$AAg?$AA_?$AAC?$AAm?$AAd?$AA?$DN?$AA1@ 1002cb38     ConEmuPluginBase.obj
 0002:00002d44       ??_C@_1CG@OILEFJJN@?$AAC?$AAo?$AAn?$AAE?$AAm?$AAu?$AAT?$AAh?$AA?3?$AA?3?$AAS?$AAe?$AAt?$AAt?$AAi?$AAn?$AAg?$AAs?$AA?$AA@ 1002cd44     ConEmuPluginBase.obj
 0002:00002d6c       ??_C@_1CI@MBMLEGFG@?$AAC?$AAo?$AAn?$AAE?$AAm?$AAu?$AAF?$AAa?$AAr?$AAM?$AAa?$AAp?$AAp?$AAi?$AAn?$AAg?$AA?4?$AA?$CF?$AAu?$AA?$AA@ 1002cd6c     ConEmuPluginBase.obj
 0002:00002d94       ??_C@_1CO@INAJPHBH@?$AAC?$AAo?$AAn?$AAE?$AAm?$AAu?$AAF?$AAa?$AAr?$AAA?$AAl?$AAi?$AAv?$AAe?$AAE?$AAv?$AAe?$AAn?$AAt?$AA?4?$AA?$CF?$AAu?$AA?$AA@ 1002cd94     ConEmuPluginBase.obj
 0002:00002dc4       ??_C@_1BE@GLIABAAK@?$AA?$EA?$AA?$FO?$AA$?$AAT?$AAE?$AAX?$AAT?$AA?5?$AA?$CC?$AA?$AA@ 1002cdc4     ConEmuPluginBase.obj
 0002:00002dd8       ??_C@_1BE@CPLNCDLK@?$AA?$EA?$AA?$FO?$AAp?$AAr?$AAi?$AAn?$AAt?$AA?$CI?$AA?$CC?$AA?$AA@ 1002cdd8     ConEmuPluginBase.obj
 0002:00002dec       ??_C@_13NEIAEHFG@?$AA?$CC?$AA?$AA@ 1002cdec     ConEmuPluginBase.obj
 0002:00002df0       ??_C@_15NJGDBKNF@?$AA?$CC?$AA?$CJ?$AA?$AA@ 1002cdf0     ConEmuPluginBase.obj
 0002:00002df8       ??_C@_1GK@OGACKIKJ@?$AAI?$AAn?$AAt?$AAe?$AAr?$AAn?$AAa?$AAl?$AA?5?$AAe?$AAr?$AAr?$AAo?$AAr?$AA?4?$AA?5?$AAM?$AAa?$AAp?$AAp?$AAi?$AAn?$AAg?$AA?5?$AAf?$AAi?$AAl?$AAe?$AA?5?$AAn?$AAa?$AAm@ 1002cdf8     ConEmuPluginBase.obj
 0002:00002e64       ??_C@_1O@KBENBEFG@?$AAc?$AAr?$AAe?$AAa?$AAt?$AAe?$AA?$AA@ 1002ce64     ConEmuPluginBase.obj
 0002:00002e74       ??_C@_19BDAJEHDN@?$AAo?$AAp?$AAe?$AAn?$AA?$AA@ 1002ce74     ConEmuPluginBase.obj
 0002:00002e80       ??_C@_1GM@LGOLGABE@?$AAC?$AAa?$AAn?$AA?8?$AAt?$AA?5?$AA?$CF?$AAs?$AA?5?$AAc?$AAo?$AAn?$AAs?$AAo?$AAl?$AAe?$AA?5?$AAd?$AAa?$AAt?$AAa?$AA?5?$AAf?$AAi?$AAl?$AAe?$AA?5?$AAm?$AAa?$AAp?$AAp?$AAi@ 1002ce80     ConEmuPluginBase.obj
 0002:00002eec       ??_C@_1BE@HADLJAO@?$AAR?$AAe?$AAa?$AAd?$AAW?$AAr?$AAi?$AAt?$AAe?$AA?$AA@ 1002ceec     ConEmuPluginBase.obj
 0002:00002f00       ??_C@_19EOHDNDII@?$AAR?$AAe?$AAa?$AAd?$AA?$AA@ 1002cf00     ConEmuPluginBase.obj
 0002:00002f10       ??_C@_1FO@BGAPBIGG@?$AAC?$AAa?$AAn?$AA?8?$AAt?$AA?5?$AAm?$AAa?$AAp?$AA?5?$AAc?$AAo?$AAn?$AAs?$AAo?$AAl?$AAe?$AA?5?$AAi?$AAn?$AAf?$AAo?$AA?5?$AA?$CI?$AA?$CF?$AAs?$AA?$CJ?$AA?4?$AA?5?$AAE?$AAr?$AAr@ 1002cf10     ConEmuPluginBase.obj
 0002:00002f70       ??_C@_0CC@NHDOGAI@ConEmuPlugin?2PluginBackground?4cp@ 1002cf70     PluginBackground.obj
 0002:00002f94       ??_C@_1DA@OEIAGFIH@?$AAC?$AAo?$AAn?$AAE?$AAm?$AAu?$AA?$AA?$AAF?$AAa?$AAr?$AA?5?$AAB?$AAa?$AAc?$AAk?$AAg?$AAr?$AAo?$AAu?$AAn?$AAd?$AA?$AA?$AA?$AA?$AA?$AA@ 1002cf94     PluginBackground.obj
 0002:00002fc4       ??_C@_1DA@BMIFHIMF@?$AAC?$AAo?$AAn?$AAE?$AAm?$AAu?$AAV?$AAi?$AAe?$AAw?$AAS?$AAe?$AAt?$AAM?$AAa?$AAp?$AAp?$AAi?$AAn?$AAg?$AA?4?$AA?$CF?$AAu?$AA?$AA@ 1002cfc4     PluginBackground.obj
 0002:00002ff4       ??_C@_13JOFGPIOO@?$AA?4?$AA?$AA@ 1002cff4     PluginSrv.obj
 0002:00002ff8       ??_C@_1DC@PFNEMDKA@?$AA?2?$AA?2?$AA?$CF?$AAs?$AA?2?$AAp?$AAi?$AAp?$AAe?$AA?2?$AAC?$AAo?$AAn?$AAE?$AAm?$AAu?$AAP?$AAl?$AAu?$AAg?$AAi?$AAn?$AA?$CF?$AAu?$AA?$AA@ 1002cff8     PluginSrv.obj
 0002:0000302c       ??_C@_0BL@NBJJKCGD@ConEmuPlugin?2PluginSrv?4cpp?$AA@ 1002d02c     PluginSrv.obj
 0002:00003048       ??_C@_19HGGOABND@?$AA?$CF?$AA0?$AA8?$AAx?$AA?$AA@ 1002d048     PluginSrv.obj
 0002:00003058       ??_C@_0EF@JMEBABEH@t?3?2vcproject?2maximus5?2conemu?2src@ 1002d058     PluginSrv.obj
 0002:000030a0       ??_C@_1FM@LPOPCJG@?$AAS?$AAt?$AAa?$AAr?$AAt?$AAP?$AAi?$AAp?$AAe?$AAS?$AAe?$AAr?$AAv?$AAe?$AAr?$AA?3?$AAa?$AAp?$AAf?$AAn?$AAP?$AAi?$AAp?$AAe?$AAS?$AAe?$AAr?$AAv?$AAe?$AAr?$AAC?$AAo@ 1002d0a0     PluginSrv.obj
 0002:00003100       ??_C@_1GC@MCEAIMAO@?$AAS?$AAt?$AAa?$AAr?$AAt?$AAP?$AAi?$AAp?$AAe?$AAI?$AAn?$AAs?$AAt?$AAa?$AAn?$AAc?$AAe?$AA?3?$AAC?$AAr?$AAe?$AAa?$AAt?$AAe?$AAE?$AAv?$AAe?$AAn?$AAt?$AA?5?$AAf?$AAa@ 1002d100     PluginSrv.obj
 0002:00003164       ??_C@_0BB@MDGFLNIP@PipeServerThread?$AA@ 1002d164     PluginSrv.obj
 0002:00003178       ??_C@_1GG@PAGGIEEF@?$AAS?$AAt?$AAa?$AAr?$AAt?$AAP?$AAi?$AAp?$AAe?$AAI?$AAn?$AAs?$AAt?$AAa?$AAn?$AAc?$AAe?$AA?3?$AAC?$AAr?$AAe?$AAa?$AAt?$AAe?$AAT?$AAh?$AAr?$AAe?$AAa?$AAd?$AA?5?$AAf@ 1002d178     PluginSrv.obj
 0002:000031e0       ??_C@_1M@KGONCMNM@?$AA?$CF?$AAs?$AA?6?$AA?$CF?$AAs?$AA?$AA@ 1002d1e0     PluginSrv.obj
 0002:000031f0       ??_C@_1EA@JFONKNJK@?$AAP?$AAi?$AAp?$AAe?$AAS?$AAe?$AAr?$AAv?$AAe?$AAr?$AAE?$AAr?$AAr?$AAo?$AAr?$AA?0?$AA?5?$AAP?$AAI?$AAD?$AA?$DN?$AA?$CF?$AAu?$AA?0?$AA?5?$AAT?$AAI?$AAD?$AA?$DN?$AA?$CF?$AAu?$AA?$AA@ 1002d1f0     PluginSrv.obj
 0002:00003230       ??_C@_1FG@DJFPBHJF@?$AAP?$AAi?$AAp?$AAe?$AAS?$AAe?$AAr?$AAv?$AAe?$AAr?$AAE?$AAr?$AAr?$AAo?$AAr?$AA?0?$AA?5?$AAP?$AAI?$AAD?$AA?$DN?$AA?$CF?$AAu?$AA?0?$AA?5?$AAT?$AAI?$AAD?$AA?$DN?$AA?$CF?$AAu?$AA?6@ 1002d230     PluginSrv.obj
 0002:00003288       ??_C@_1GK@OLPCHMBE@?$AAP?$AAi?$AAp?$AAe?$AAS?$AAe?$AAr?$AAv?$AAe?$AAr?$AAT?$AAh?$AAr?$AAe?$AAa?$AAd?$AA?3?$AAC?$AAo?$AAn?$AAn?$AAe?$AAc?$AAt?$AAN?$AAa?$AAm?$AAe?$AAd?$AAP?$AAi?$AAp@ 1002d288     PluginSrv.obj
 0002:000032f8       ??_C@_1HA@EGHGJDPG@?$AAP?$AAi?$AAp?$AAe?$AAS?$AAe?$AAr?$AAv?$AAe?$AAr?$AAT?$AAh?$AAr?$AAe?$AAa?$AAd?$AA?3?$AAG?$AAe?$AAt?$AAO?$AAv?$AAe?$AAr?$AAl?$AAa?$AAp?$AAp?$AAe?$AAd?$AAR?$AAe@ 1002d2f8     PluginSrv.obj
 0002:00003368       ??_C@_1HG@LHMKOAMG@?$AAP?$AAi?$AAp?$AAe?$AAS?$AAe?$AAr?$AAv?$AAe?$AAr?$AAT?$AAh?$AAr?$AAe?$AAa?$AAd?$AA?3?$AAW?$AAa?$AAi?$AAt?$AAF?$AAo?$AAr?$AAM?$AAu?$AAl?$AAt?$AAi?$AAp?$AAl?$AAe@ 1002d368     PluginSrv.obj
 0002:000033e0       ??_C@_0BC@EMFLEJML@common?2Memory?4cpp?$AA@ 1002d3e0     common-kernel32:Memory.obj
 0002:000033f8       ??_C@_1EM@INHGIPLC@?$AA?$CF?$AAs?$AA?4?$AA?$CF?$AAu?$AA?3?$AA?5?$AAC?$AAr?$AAe?$AAa?$AAt?$AAe?$AAF?$AAi?$AAl?$AAe?$AA?$CI?$AA?$CF?$AAs?$AA?$CJ?$AA?5?$AAf?$AAa?$AAi?$AAl?$AAe?$AAd?$AA?0?$AA?5?$AAc?$AAo@ 1002d3f8     common-kernel32:ConEmuCheck.obj
 0002:00003444       ??_C@_0BH@IBJODGM@common?2ConEmuCheck?4cpp?$AA@ 1002d444     common-kernel32:ConEmuCheck.obj
 0002:0000345c       ??_C@_1DA@LCPELGGN@?$AAC?$AAo?$AAn?$AAE?$AAm?$AAu?$AAG?$AAu?$AAi?$AAI?$AAn?$AAf?$AAo?$AAM?$AAa?$AAp?$AAp?$AAi?$AAn?$AAg?$AA?4?$AA?$CF?$AAu?$AA?$AA@ 1002d45c     common-kernel32:ConEmuCheck.obj
 0002:0000348c       ??_C@_1DC@MJLCOFMA@?$AA?2?$AA?2?$AA?$CF?$AAs?$AA?2?$AAp?$AAi?$AAp?$AAe?$AA?2?$AAC?$AAo?$AAn?$AAE?$AAm?$AAu?$AAG?$AAu?$AAi?$AA?4?$AA?$CF?$AA0?$AA8?$AAX?$AA?$AA@ 1002d48c     common-kernel32:ConEmuCheck.obj
 0002:000034c0       ??_C@_1CM@OPJKOFLA@?$AA?2?$AA?2?$AA?$CF?$AAs?$AA?2?$AAp?$AAi?$AAp?$AAe?$AA?2?$AAC?$AAo?$AAn?$AAE?$AAm?$AAu?$AAS?$AAr?$AAv?$AA?$CF?$AAu?$AA?$AA@ 1002d4c0     common-kernel32:ConEmuCheck.obj
 0002:000034ec       ??_C@_1CG@FFFCCLIF@?$AAC?$AAo?$AAn?$AAs?$AAo?$AAl?$AAe?$AAW?$AAi?$AAn?$AAd?$AAo?$AAw?$AAC?$AAl?$AAa?$AAs?$AAs?$AA?$AA@ 1002d4ec     common-kernel32:ConEmuCheck.obj
 0002:00003514       ??_C@_1CC@LMJBOHFL@?$AAW?$AAi?$AAn?$AAe?$AAC?$AAo?$AAn?$AAs?$AAo?$AAl?$AAe?$AAC?$AAl?$AAa?$AAs?$AAs?$AA?$AA@ 1002d514     common-kernel32:ConEmuCheck.obj
 0002:00003538       ??_C@_1BC@LMIJMNIA@?$AA0?$AA0?$AA0?$AA0?$AA0?$AA0?$AA0?$AA0?$AA?$AA@ 1002d538     common-kernel32:MStrSafe.obj
 0002:0000354c       ??_C@_19FBKLJMA@?$AA0?$AA0?$AA0?$AA0?$AA?$AA@ 1002d54c     common-kernel32:MStrSafe.obj
 0002:00003558       ??_C@_15LKGMKBFA@?$AA0?$AA0?$AA?$AA@ 1002d558     common-kernel32:MStrSafe.obj
 0002:00003560       ??_C@_1EHK@JMHPNAMN@?$AAA?$AAC?$AAT?$AAI?$AAV?$AAA?$AAT?$AAE?$AA?$AA?$AAA?$AAL?$AAI?$AAA?$AAS?$AA?$AA?$AAA?$AAS?$AAS?$AAO?$AAC?$AA?$AA?$AAA?$AAT?$AAT?$AAR?$AAI?$AAB?$AA?$AA?$AAB?$AAE?$AAE?$AAP@ 1002d560     common-kernel32:CmdLine.obj
 0002:000039dc       ??_C@_1BM@DIGKKBBA@?$AAC?$AAo?$AAn?$AAE?$AAm?$AAu?$AAC?$AA6?$AA4?$AA?4?$AAe?$AAx?$AAe?$AA?$AA@ 1002d9dc     common-kernel32:CmdLine.obj
 0002:000039f8       ??_C@_19DOGDICKI@?$AA?4?$AAe?$AAx?$AAe?$AA?$AA@ 1002d9f8     common-kernel32:CmdLine.obj
 0002:00003a04       ??_C@_1BG@PIGCKNCG@?$AAC?$AAo?$AAn?$AAE?$AAm?$AAu?$AA?4?$AAe?$AAx?$AAe?$AA?$AA@ 1002da04     common-kernel32:CmdLine.obj
 0002:00003a1c       ??_C@_1BK@BNOCAHHB@?$AAC?$AAo?$AAn?$AAE?$AAm?$AAu?$AA6?$AA4?$AA?4?$AAe?$AAx?$AAe?$AA?$AA@ 1002da1c     common-kernel32:CmdLine.obj
 0002:00003a38       ??_C@_05LCABBMOG@?$CFs?3?$CFi?$AA@ 1002da38     common-kernel32:WThreads.obj
 0002:00003a40       ??_C@_0BD@DFGHIKFM@common?2MStrDup?4cpp?$AA@ 1002da40     common-kernel32:MStrDup.obj
 0002:00003a54       ??_C@_0BE@DBGJFJEJ@common?2WObjects?4cpp?$AA@ 1002da54     common-kernel32:WObjects.obj
 0002:00003a68       ??_C@_0P@LKABJJMO@IsWow64Process?$AA@ 1002da68     common-kernel32:WObjects.obj
 0002:00003a78       ??_C@_1BA@PHJPMKEE@?$AAC?$AAo?$AAm?$AAS?$AAp?$AAe?$AAc?$AA?$AA@ 1002da78     common-kernel32:WObjects.obj
 0002:00003a88       ??_C@_1BO@HJHEFHMO@?$AAK?$AAe?$AAr?$AAn?$AAe?$AAl?$AAB?$AAa?$AAs?$AAe?$AA?4?$AAd?$AAl?$AAl?$AA?$AA@ 1002da88     common-kernel32:MSecurity.obj
 0002:00003aa8       ??_C@_1BK@BIGILECK@?$AAA?$AAd?$AAv?$AAa?$AAp?$AAi?$AA3?$AA2?$AA?4?$AAd?$AAl?$AAl?$AA?$AA@ 1002daa8     common-kernel32:MSecurity.obj
 0002:00003ac4       ??_C@_0BE@IPKPLIM@AddAccessAllowedAce?$AA@ 1002dac4     common-kernel32:MSecurity.obj
 0002:00003ad8       ??_C@_0BD@EIGAJLOG@AddAccessDeniedAce?$AA@ 1002dad8     common-kernel32:MSecurity.obj
 0002:00003aec       ??_C@_0BJ@ECIKFEOL@AllocateAndInitializeSid?$AA@ 1002daec     common-kernel32:MSecurity.obj
 0002:00003b08       ??_C@_0N@HBKDHKNL@GetLengthSid?$AA@ 1002db08     common-kernel32:MSecurity.obj
 0002:00003b18       ??_C@_0O@GKCEJBAA@InitializeAcl?$AA@ 1002db18     common-kernel32:MSecurity.obj
 0002:00003b28       ??_C@_0BN@FNLANPJJ@InitializeSecurityDescriptor?$AA@ 1002db28     common-kernel32:MSecurity.obj
 0002:00003b48       ??_C@_0BK@DNNLOFO@SetSecurityDescriptorDacl?$AA@ 1002db48     common-kernel32:MSecurity.obj
 0002:00003b64       ??_C@_0BB@PGNHFBGE@common?2CEStr?4cpp?$AA@ 1002db64     common-kernel32:CEStr.obj
 0002:00003b78       ??_C@_19IJOJOJIB@?$AAP?$AAA?$AAT?$AAH?$AA?$AA@ 1002db78     common-kernel32:CEStr.obj
 0002:00003b84       ??_C@_0BD@HGJIAJJM@RequestTrampolines?$AA@ 1002db84     common-kernel32:HkFunc.obj
 0002:00003b9c       ??_7?$MToolHelp@UtagPROCESSENTRY32W@@$1?Process32FirstW@@YGHPAXPAU1@@Z$1?Process32NextW@@YGH01@Z@@6B@ 1002db9c     common-kernel32:MProcess.obj
 0002:00003ba8       ??_7MToolHelpProcess@@6B@  1002dba8     common-kernel32:MProcess.obj
 0002:00003bb0       ??_C@_1BK@HHKNEJDC@?$AAt?$AAl?$AAn?$AAt?$AAs?$AAe?$AAs?$AAs?$AA?4?$AAe?$AAx?$AAe?$AA?$AA@ 1002dbb0     common-kernel32:MProcess.obj
 0002:00003bcc       ??_C@_1BI@MPDCNJBA@?$AAt?$AAl?$AAn?$AAt?$AAs?$AAv?$AAr?$AA?4?$AAe?$AAx?$AAe?$AA?$AA@ 1002dbcc     common-kernel32:MProcess.obj
 0002:00003be4       ??_C@_0DB@GCECLDIP@t?3?2vcproject?2maximus5?2conemu?2src@ 1002dbe4     common-kernel32:MProcess.obj
 0002:00003c18       ??_C@_1BE@GJOFHIHD@?$AAn?$AAt?$AAd?$AAl?$AAl?$AA?4?$AAd?$AAl?$AAl?$AA?$AA@ 1002dc18     common-kernel32:WModuleCheck.obj
 0002:00003c2c       ??_C@_1O@GNPNAMOC@?$AA0?$AAx?$AA?$CF?$AA0?$AA8?$AAX?$AA?$AA@ 1002dc2c     common-user32:SetEnvVar.obj
 0002:00003c3c       ??_C@_1BG@CJNOKBPK@?$AAC?$AAo?$AAn?$AAE?$AAm?$AAu?$AAH?$AAW?$AAN?$AAD?$AA?$AA@ 1002dc3c     common-user32:SetEnvVar.obj
 0002:00003c54       ??_C@_15EFLNJKHH@?$AA?$CF?$AAu?$AA?$AA@ 1002dc54     common-user32:SetEnvVar.obj
 0002:00003c5c       ??_C@_1BE@GIIMEDBE@?$AAC?$AAo?$AAn?$AAE?$AAm?$AAu?$AAP?$AAI?$AAD?$AA?$AA@ 1002dc5c     common-user32:SetEnvVar.obj
 0002:00003c70       ??_C@_1BO@BBOAAODE@?$AAC?$AAo?$AAn?$AAE?$AAm?$AAu?$AAD?$AAr?$AAa?$AAw?$AAH?$AAW?$AAN?$AAD?$AA?$AA@ 1002dc70     common-user32:SetEnvVar.obj
 0002:00003c90       ??_C@_1BO@DIAPFMAN@?$AAC?$AAo?$AAn?$AAE?$AAm?$AAu?$AAB?$AAa?$AAc?$AAk?$AAH?$AAW?$AAN?$AAD?$AA?$AA@ 1002dc90     common-user32:SetEnvVar.obj
 0002:00003cb0       ??_C@_1CI@PDOPFPLH@?$AAV?$AAi?$AAr?$AAt?$AAu?$AAa?$AAl?$AAC?$AAo?$AAn?$AAs?$AAo?$AAl?$AAe?$AAC?$AAl?$AAa?$AAs?$AAs?$AA?$AA@ 1002dcb0     common-user32:ConEmuCheckEx.obj
 0002:00003cd8       ??_C@_1CC@PDEDDOGK@?$AA?2?$AAP?$AAl?$AAu?$AAg?$AAi?$AAn?$AAs?$AA?2?$AAC?$AAo?$AAn?$AAE?$AAm?$AAu?$AA?2?$AA?$AA@ 1002dcd8     common-user32:ConEmuCheckEx.obj
 0002:00003cfc       ??_C@_1CA@CNCOCNJD@?$AAS?$AAo?$AAf?$AAt?$AAw?$AAa?$AAr?$AAe?$AA?2?$AAC?$AAo?$AAn?$AAE?$AAm?$AAu?$AA?$AA@ 1002dcfc     common-user32:ConEmuCheckEx.obj
 0002:00003d1c       ??_C@_1CK@KBHIPEEC@?$AAC?$AAo?$AAn?$AAE?$AAm?$AAu?$AA?2?$AAC?$AAo?$AAn?$AAE?$AAm?$AAu?$AAC?$AA6?$AA4?$AA?4?$AAe?$AAx?$AAe?$AA?$AA@ 1002dd1c     common-user32:ConEmuCheckEx.obj
 0002:00003d48       ??_C@_1CG@HCDHJIEM@?$AAC?$AAo?$AAn?$AAE?$AAm?$AAu?$AA?2?$AAC?$AAo?$AAn?$AAE?$AAm?$AAu?$AAC?$AA?4?$AAe?$AAx?$AAe?$AA?$AA@ 1002dd48     common-user32:ConEmuCheckEx.obj
 0002:00003d70       __xmm@80000002800000028000000100000000 1002dd70     common-user32:ConEmuCheckEx.obj
 0002:00003d80       ??_C@_1BO@CJPKCNHF@?$AAL?$AAu?$AAc?$AAi?$AAd?$AAa?$AA?5?$AAC?$AAo?$AAn?$AAs?$AAo?$AAl?$AAe?$AA?$AA@ 1002dd80     common-user32:EmergencyShow.obj
 0002:00003da0       ??_C@_1BA@GIKDDGPH@?$AAC?$AAo?$AAn?$AAs?$AAo?$AAl?$AAe?$AA?$AA@ 1002dda0     common-user32:EmergencyShow.obj
 0002:00003db0       ??_C@_1BC@MAHCNJIF@?$AAF?$AAo?$AAn?$AAt?$AAS?$AAi?$AAz?$AAe?$AA?$AA@ 1002ddb0     common-user32:EmergencyShow.obj
 0002:00003dc8       ??_C@_1EM@OAOIIPGN@?$AAC?$AAo?$AAn?$AAs?$AAo?$AAl?$AAe?$AA?2?$AA?$CF?$AAS?$AAy?$AAs?$AAt?$AAe?$AAm?$AAR?$AAo?$AAo?$AAt?$AA?$CF?$AA_?$AAs?$AAy?$AAs?$AAt?$AAe?$AAm?$AA3?$AA2?$AA_?$AAc?$AAm@ 1002ddc8     common-user32:EmergencyShow.obj
 0002:00003e14       ??_C@_1DC@GKBPJPHN@?$AAC?$AAo?$AAn?$AAE?$AAm?$AAu?$AAE?$AAm?$AAe?$AAr?$AAg?$AAe?$AAn?$AAc?$AAy?$AAS?$AAh?$AAo?$AAw?$AA?3?$AA?$CF?$AA0?$AA8?$AAX?$AA?$AA@ 1002de14     common-user32:EmergencyShow.obj
 0002:00003e48       ??_C@_1GK@PPEHOOAL@?$AAS?$AAO?$AAF?$AAT?$AAW?$AAA?$AAR?$AAE?$AA?2?$AAM?$AAi?$AAc?$AAr?$AAo?$AAs?$AAo?$AAf?$AAt?$AA?2?$AAW?$AAi?$AAn?$AAd?$AAo?$AAw?$AAs?$AA?2?$AAC?$AAu?$AAr?$AAr?$AAe@ 1002de48     common-user32:WFiles.obj
 0002:00003eb4       ??_C@_0BC@HEOJLKJO@common?2WFiles?4cpp?$AA@ 1002deb4     common-user32:WFiles.obj
 0002:00003ec8       ??_C@_13PJJBFPED@?$AA?$DL?$AA?$AA@ 1002dec8     common-user32:WFiles.obj
 0002:00003ed0       ??_C@_1FM@HGFGNGE@?$AAC?$AAa?$AAn?$AA?8?$AAt?$AA?5?$AAC?$AAr?$AAe?$AAa?$AAt?$AAe?$AAF?$AAi?$AAl?$AAe?$AAM?$AAa?$AAp?$AAp?$AAi?$AAn?$AAg?$AA?$CI?$AAh?$AAS?$AAe?$AAc?$AAt?$AAi?$AAo?$AAn@ 1002ded0     common-user32:WConsoleEx.obj
 0002:00003f30       ??_C@_1EA@DNEBDKPD@?$AAC?$AAa?$AAn?$AA?8?$AAt?$AA?5?$AAM?$AAa?$AAp?$AAV?$AAi?$AAe?$AAw?$AAO?$AAf?$AAF?$AAi?$AAl?$AAe?$AA?4?$AA?5?$AAE?$AAr?$AAr?$AAC?$AAo?$AAd?$AAe?$AA?$DN?$AA?$CF?$AAi?$AA?$AA@ 1002df30     common-user32:WConsoleEx.obj
 0002:00003f70       ??_C@_1BO@IPFLJP@?$AAC?$AAo?$AAn?$AAs?$AAo?$AAl?$AAe?$AA?2?$AAC?$AAo?$AAn?$AAE?$AAm?$AAu?$AA?$AA@ 1002df70     common-user32:WConsoleEx.obj
 0002:00003f90       ??_C@_1CE@BJHMHGLF@?$AAH?$AAi?$AAs?$AAt?$AAo?$AAr?$AAy?$AAB?$AAu?$AAf?$AAf?$AAe?$AAr?$AAS?$AAi?$AAz?$AAe?$AA?$AA@ 1002df90     common-user32:WConsoleEx.obj
 0002:00003fb4       ??_C@_1CO@DAOCNAIJ@?$AAN?$AAu?$AAm?$AAb?$AAe?$AAr?$AAO?$AAf?$AAH?$AAi?$AAs?$AAt?$AAo?$AAr?$AAy?$AAB?$AAu?$AAf?$AAf?$AAe?$AAr?$AAs?$AA?$AA@ 1002dfb4     common-user32:WConsoleEx.obj
 0002:00003fe4       ??_C@_0BB@EMINMHKL@common?2WUser?4cpp?$AA@ 1002dfe4     common-user32:WUser.obj
 0002:00003ffc       ??_7type_info@@6B@         1002dffc     LIBCMT:std_type_info_static.obj
 0002:00004000       ??_C@_1EC@JIJBPKFM@?$AAa?$AAp?$AAi?$AA?9?$AAm?$AAs?$AA?9?$AAw?$AAi?$AAn?$AA?9?$AAc?$AAo?$AAr?$AAe?$AA?9?$AAs?$AAy?$AAn?$AAc?$AAh?$AA?9?$AAl?$AA1?$AA?9?$AA2?$AA?9?$AA0?$AA?4?$AAd?$AAl?$AAl@ 1002e000     LIBCMT:thread_safe_statics.obj
 0002:00004044       ??_C@_0BM@HLJJNPAH@InitializeConditionVariable?$AA@ 1002e044     LIBCMT:thread_safe_statics.obj
 0002:00004060       ??_C@_0BJ@JEBJOJFJ@SleepConditionVariableCS?$AA@ 1002e060     LIBCMT:thread_safe_statics.obj
 0002:0000407c       ??_C@_0BJ@PGPPEPCC@WakeAllConditionVariable?$AA@ 1002e07c     LIBCMT:thread_safe_statics.obj
 0002:00004098       __pDefaultRawDllMain       1002e098     LIBCMT:dll_dllmain.obj
 0002:00004098       __pRawDllMain              1002e098     LIBCMT:dll_dllmain.obj
 0002:000040a4       __pDestructExceptionObject 1002e0a4     libvcruntime:ehhelpers.obj
 0002:000040b4       ??_C@_1DM@KHCHBNEB@?$AAa?$AAp?$AAi?$AA?9?$AAm?$AAs?$AA?9?$AAw?$AAi?$AAn?$AA?9?$AAc?$AAo?$AAr?$AAe?$AA?9?$AAf?$AAi?$AAb?$AAe?$AAr?$AAs?$AA?9?$AAl?$AA1?$AA?9?$AA1?$AA?9?$AA1?$AA?$AA@ 1002e0b4     libvcruntime:winapi_downlevel.obj
 0002:000040f0       ??_C@_1DK@LPPGFMPP@?$AAa?$AAp?$AAi?$AA?9?$AAm?$AAs?$AA?9?$AAw?$AAi?$AAn?$AA?9?$AAc?$AAo?$AAr?$AAe?$AA?9?$AAs?$AAy?$AAn?$AAc?$AAh?$AA?9?$AAl?$AA1?$AA?9?$AA2?$AA?9?$AA0?$AA?$AA@ 1002e0f0     libvcruntime:winapi_downlevel.obj
 0002:0000412c       ??_C@_1BC@GDMECMAK@?$AAk?$AAe?$AAr?$AAn?$AAe?$AAl?$AA3?$AA2?$AA?$AA@ 1002e12c     libvcruntime:winapi_downlevel.obj
 0002:00004140       ??_C@_1BA@PFFKHIOG@?$AAa?$AAp?$AAi?$AA?9?$AAm?$AAs?$AA?9?$AA?$AA@ 1002e140     libvcruntime:winapi_downlevel.obj
 0002:00004150       ??_C@_1BA@IAIFMGEF@?$AAe?$AAx?$AAt?$AA?9?$AAm?$AAs?$AA?9?$AA?$AA@ 1002e150     libvcruntime:winapi_downlevel.obj
 0002:00004168       ??_C@_08KNHFBNJ@FlsAlloc?$AA@ 1002e168     libvcruntime:winapi_downlevel.obj
 0002:0000417c       ??_C@_07PEJMOBNF@FlsFree?$AA@ 1002e17c     libvcruntime:winapi_downlevel.obj
 0002:0000418c       ??_C@_0M@GDNOONDI@FlsGetValue?$AA@ 1002e18c     libvcruntime:winapi_downlevel.obj
 0002:000041a0       ??_C@_0M@JCPCPOEF@FlsSetValue?$AA@ 1002e1a0     libvcruntime:winapi_downlevel.obj
 0002:000041b4       ??_C@_0BM@HCFOFFN@InitializeCriticalSectionEx?$AA@ 1002e1b4     libvcruntime:winapi_downlevel.obj
 0002:000041d4       ??_7exception@std@@6B@     1002e1d4     libvcruntime:frame.obj
 0002:000041dc       ??_C@_0BC@EOODALEL@Unknown?5exception?$AA@ 1002e1dc     libvcruntime:frame.obj
 0002:000041f4       ??_7bad_exception@std@@6B@ 1002e1f4     libvcruntime:frame.obj
 0002:000041fc       ??_C@_0O@DPKOEFFH@bad?5exception?$AA@ 1002e1fc     libvcruntime:frame.obj
 0002:000043a4       ??_C@_08EHJDFFNH@__based?$CI?$AA@ 1002e3a4     libvcruntime:undname.obj
 0002:000043b0       ??_C@_07KOLFKCDI@__cdecl?$AA@ 1002e3b0     libvcruntime:undname.obj
 0002:000043b8       ??_C@_08GHMPAG@__pascal?$AA@ 1002e3b8     libvcruntime:undname.obj
 0002:000043c4       ??_C@_09IFJBGAPI@__stdcall?$AA@ 1002e3c4     libvcruntime:undname.obj
 0002:000043d0       ??_C@_0L@NPHFGOKO@__thiscall?$AA@ 1002e3d0     libvcruntime:undname.obj
 0002:000043dc       ??_C@_0L@JMKHOMEK@__fastcall?$AA@ 1002e3dc     libvcruntime:undname.obj
 0002:000043e8       ??_C@_0N@BCKKPABJ@__vectorcall?$AA@ 1002e3e8     libvcruntime:undname.obj
 0002:000043f8       ??_C@_09HIJEGCPM@__clrcall?$AA@ 1002e3f8     libvcruntime:undname.obj
 0002:00004404       ??_C@_06GHPCKEAG@__eabi?$AA@ 1002e404     libvcruntime:undname.obj
 0002:0000440c       ??_C@_07JOMMBBKO@__ptr64?$AA@ 1002e40c     libvcruntime:undname.obj
 0002:00004414       ??_C@_0L@PILCLIHE@__restrict?$AA@ 1002e414     libvcruntime:undname.obj
 0002:00004420       ??_C@_0M@GFIIJFMG@__unaligned?$AA@ 1002e420     libvcruntime:undname.obj
 0002:0000442c       ??_C@_09DHDLOLLB@restrict?$CI?$AA@ 1002e42c     libvcruntime:undname.obj
 0002:00004438       ??_C@_04NIHEBCM@?5new?$AA@ 1002e438     libvcruntime:undname.obj
 0002:00004440       ??_C@_07FPCDHGMM@?5delete?$AA@ 1002e440     libvcruntime:undname.obj
 0002:00004448       ??_C@_01NEMOKFLO@?$DN?$AA@ 1002e448     libvcruntime:undname.obj
 0002:0000444c       ??_C@_02GPIOPFAK@?$DO?$DO?$AA@ 1002e44c     libvcruntime:undname.obj
 0002:00004450       ??_C@_02FODMEDOG@?$DM?$DM?$AA@ 1002e450     libvcruntime:undname.obj
 0002:00004454       ??_C@_01DCLJPIOD@?$CB?$AA@ 1002e454     libvcruntime:undname.obj
 0002:00004458       ??_C@_02EGOFBIJA@?$DN?$DN?$AA@ 1002e458     libvcruntime:undname.obj
 0002:0000445c       ??_C@_02FDNJECIE@?$CB?$DN?$AA@ 1002e45c     libvcruntime:undname.obj
 0002:00004460       ??_C@_02GPECMEKF@?$FL?$FN?$AA@ 1002e460     libvcruntime:undname.obj
 0002:00004464       ??_C@_08LHJFAFGD@operator?$AA@ 1002e464     libvcruntime:undname.obj
 0002:00004470       ??_C@_02HBOOOICD@?9?$DO?$AA@ 1002e470     libvcruntime:undname.obj
 0002:00004474       ??_C@_01NBENCBCI@?$CK?$AA@ 1002e474     libvcruntime:undname.obj
 0002:00004478       ??_C@_02ECNGHCIF@?$CL?$CL?$AA@ 1002e478     libvcruntime:undname.obj
 0002:0000447c       ??_C@_02BAABKJLB@?9?9?$AA@ 1002e47c     libvcruntime:undname.obj
 0002:00004480       ??_C@_01JOAMLHOP@?9?$AA@   1002e480     libvcruntime:undname.obj
 0002:00004484       ??_C@_01MIFGBAGJ@?$CL?$AA@ 1002e484     libvcruntime:undname.obj
 0002:00004488       ??_C@_01HNPIGOCE@?$CG?$AA@ 1002e488     libvcruntime:undname.obj
 0002:0000448c       ??_C@_03MNHNFDLC@?9?$DO?$CK?$AA@ 1002e48c     libvcruntime:undname.obj
 0002:00004490       ??_C@_01KMDKNFGN@?1?$AA@   1002e490     libvcruntime:undname.obj
 0002:00004494       ??_C@_01FGNFDNOH@?$CF?$AA@ 1002e494     libvcruntime:undname.obj
 0002:00004498       ??_C@_01MNNFJEPP@?$DM?$AA@ 1002e498     libvcruntime:undname.obj
 0002:0000449c       ??_C@_02EHCHHCKH@?$DM?$DN?$AA@ 1002e49c     libvcruntime:undname.obj
 0002:000044a0       ??_C@_01PPODPGHN@?$DO?$AA@ 1002e4a0     libvcruntime:undname.obj
 0002:000044a4       ??_C@_02EEKDKGMJ@?$DO?$DN?$AA@ 1002e4a4     libvcruntime:undname.obj
 0002:000044a8       ??_C@_01IHBHIGKO@?0?$AA@   1002e4a8     libvcruntime:undname.obj
 0002:000044ac       ??_C@_02HCKGKOFO@?$CI?$CJ?$AA@ 1002e4ac     libvcruntime:undname.obj
 0002:000044b0       ??_C@_01PJKLJHI@?$HO?$AA@  1002e4b0     libvcruntime:undname.obj
 0002:000044b4       ??_C@_01JKBOJNNK@?$FO?$AA@ 1002e4b4     libvcruntime:undname.obj
 0002:000044b8       ??_C@_01DNKMNLPK@?$HM?$AA@ 1002e4b8     libvcruntime:undname.obj
 0002:000044bc       ??_C@_02PPKAJPJL@?$CG?$CG?$AA@ 1002e4bc     libvcruntime:undname.obj
 0002:000044c0       ??_C@_02NONPIBCD@?$HM?$HM?$AA@ 1002e4c0     libvcruntime:undname.obj
 0002:000044c4       ??_C@_02FPIMKNGF@?$CK?$DN?$AA@ 1002e4c4     libvcruntime:undname.obj
 0002:000044c8       ??_C@_02FOEOMHFC@?$CL?$DN?$AA@ 1002e4c8     libvcruntime:undname.obj
 0002:000044cc       ??_C@_02FKMDLLOA@?9?$DN?$AA@ 1002e4cc     libvcruntime:undname.obj
 0002:000044d0       ??_C@_02FJEHGPIO@?1?$DN?$AA@ 1002e4d0     libvcruntime:undname.obj
 0002:000044d4       ??_C@_02FENAOKFI@?$CF?$DN?$AA@ 1002e4d4     libvcruntime:undname.obj
 0002:000044d8       ??_C@_03IKFCCPFF@?$DO?$DO?$DN?$AA@ 1002e4d8     libvcruntime:undname.obj
 0002:000044dc       ??_C@_03CDNPDDLA@?$DM?$DM?$DN?$AA@ 1002e4dc     libvcruntime:undname.obj
 0002:000044e0       ??_C@_02FGJGFEAB@?$CG?$DN?$AA@ 1002e4e0     libvcruntime:undname.obj
 0002:000044e4       ??_C@_02DHLNPPGH@?$HM?$DN?$AA@ 1002e4e4     libvcruntime:undname.obj
 0002:000044e8       ??_C@_02MHEGNOJ@?$FO?$DN?$AA@ 1002e4e8     libvcruntime:undname.obj
 0002:000044ec       ??_C@_09IFPLHPGF@?$GAvftable?8?$AA@ 1002e4ec     libvcruntime:undname.obj
 0002:000044f8       ??_C@_09BLBHBJP@?$GAvbtable?8?$AA@ 1002e4f8     libvcruntime:undname.obj
 0002:00004504       ??_C@_07FEEIOKP@?$GAvcall?8?$AA@ 1002e504     libvcruntime:undname.obj
 0002:0000450c       ??_C@_08LLFFHHDJ@?$GAtypeof?8?$AA@ 1002e50c     libvcruntime:undname.obj
 0002:00004518       ??_C@_0BF@KDPPACIK@?$GAlocal?5static?5guard?8?$AA@ 1002e518     libvcruntime:undname.obj
 0002:00004530       ??_C@_08OBABFOLI@?$GAstring?8?$AA@ 1002e530     libvcruntime:undname.obj
 0002:0000453c       ??_C@_0BD@JDLKDPAB@?$GAvbase?5destructor?8?$AA@ 1002e53c     libvcruntime:undname.obj
 0002:00004550       ??_C@_0BN@DEGPLNFK@?$GAvector?5deleting?5destructor?8?$AA@ 1002e550     libvcruntime:undname.obj
 0002:00004570       ??_C@_0BO@OBMKPJIG@?$GAdefault?5constructor?5closure?8?$AA@ 1002e570     libvcruntime:undname.obj
 0002:00004590       ??_C@_0BN@IMDCHIKM@?$GAscalar?5deleting?5destructor?8?$AA@ 1002e590     libvcruntime:undname.obj
 0002:000045b0       ??_C@_0BO@PFGOCPJJ@?$GAvector?5constructor?5iterator?8?$AA@ 1002e5b0     libvcruntime:undname.obj
 0002:000045d0       ??_C@_0BN@LFPFMEDL@?$GAvector?5destructor?5iterator?8?$AA@ 1002e5d0     libvcruntime:undname.obj
 0002:000045f0       ??_C@_0CE@IKBNEHA@?$GAvector?5vbase?5constructor?5iterat@ 1002e5f0     libvcruntime:undname.obj
 0002:00004614       ??_C@_0BL@NILFHHPC@?$GAvirtual?5displacement?5map?8?$AA@ 1002e614     libvcruntime:undname.obj
 0002:00004630       ??_C@_0CB@JONCMFFK@?$GAeh?5vector?5constructor?5iterator?8@ 1002e630     libvcruntime:undname.obj
 0002:00004654       ??_C@_0CA@GCEOPDGL@?$GAeh?5vector?5destructor?5iterator?8?$AA@ 1002e654     libvcruntime:undname.obj
 0002:00004674       ??_C@_0CH@OOJPLCPH@?$GAeh?5vector?5vbase?5constructor?5ite@ 1002e674     libvcruntime:undname.obj
 0002:0000469c       ??_C@_0BL@LLKPOHJI@?$GAcopy?5constructor?5closure?8?$AA@ 1002e69c     libvcruntime:undname.obj
 0002:000046b8       ??_C@_0BA@KBCDOMBN@?$GAudt?5returning?8?$AA@ 1002e6b8     libvcruntime:undname.obj
 0002:000046c8       ??_C@_03KLGMFNMG@?$GAEH?$AA@ 1002e6c8     libvcruntime:undname.obj
 0002:000046cc       ??_C@_05KHLCHHI@?$GARTTI?$AA@ 1002e6cc     libvcruntime:undname.obj
 0002:000046d4       ??_C@_0BA@KKLDJDLB@?$GAlocal?5vftable?8?$AA@ 1002e6d4     libvcruntime:undname.obj
 0002:000046e4       ??_C@_0CE@IIHCMGGL@?$GAlocal?5vftable?5constructor?5closu@ 1002e6e4     libvcruntime:undname.obj
 0002:00004708       ??_C@_06FHBGPFGH@?5new?$FL?$FN?$AA@ 1002e708     libvcruntime:undname.obj
 0002:00004710       ??_C@_09LBNFPBCA@?5delete?$FL?$FN?$AA@ 1002e710     libvcruntime:undname.obj
 0002:0000471c       ??_C@_0P@HJKNJFNN@?$GAomni?5callsig?8?$AA@ 1002e71c     libvcruntime:undname.obj
 0002:0000472c       ??_C@_0BL@CNOONJFP@?$GAplacement?5delete?5closure?8?$AA@ 1002e72c     libvcruntime:undname.obj
 0002:00004748       ??_C@_0BN@CKNJLHMB@?$GAplacement?5delete?$FL?$FN?5closure?8?$AA@ 1002e748     libvcruntime:undname.obj
 0002:00004768       ??_C@_0CG@CFDHKGGD@?$GAmanaged?5vector?5constructor?5iter@ 1002e768     libvcruntime:undname.obj
 0002:00004790       ??_C@_0CF@IMGKMJNO@?$GAmanaged?5vector?5destructor?5itera@ 1002e790     libvcruntime:undname.obj
 0002:000047b8       ??_C@_0CG@HLDDJMAG@?$GAeh?5vector?5copy?5constructor?5iter@ 1002e7b8     libvcruntime:undname.obj
 0002:000047e0       ??_C@_0CM@FCBBDIGB@?$GAeh?5vector?5vbase?5copy?5constructo@ 1002e7e0     libvcruntime:undname.obj
 0002:0000480c       ??_C@_0BL@CLIPGLGB@?$GAdynamic?5initializer?5for?5?8?$AA@ 1002e80c     libvcruntime:undname.obj
 0002:00004828       ??_C@_0CB@PDBIFEP@?$GAdynamic?5atexit?5destructor?5for?5?8@ 1002e828     libvcruntime:undname.obj
 0002:0000484c       ??_C@_0CD@CGAJBKEJ@?$GAvector?5copy?5constructor?5iterato@ 1002e84c     libvcruntime:undname.obj
 0002:00004870       ??_C@_0CJ@GJELGAMM@?$GAvector?5vbase?5copy?5constructor?5i@ 1002e870     libvcruntime:undname.obj
 0002:0000489c       ??_C@_0CL@FGIJHLCE@?$GAmanaged?5vector?5copy?5constructor@ 1002e89c     libvcruntime:undname.obj
 0002:000048c8       ??_C@_0BM@PMGGMLDN@?$GAlocal?5static?5thread?5guard?8?$AA@ 1002e8c8     libvcruntime:undname.obj
 0002:000048e4       ??_C@_0N@BDNMDMOL@operator?5?$CC?$CC?5?$AA@ 1002e8e4     libvcruntime:undname.obj
 0002:000048f4       ??_C@_0BC@GGEBGALA@operator?5co_await?$AA@ 1002e8f4     libvcruntime:undname.obj
 0002:00004908       ??_C@_0BC@DAFEJGAK@?5Type?5Descriptor?8?$AA@ 1002e908     libvcruntime:undname.obj
 0002:0000491c       ??_C@_0BM@LDKODKLH@?5Base?5Class?5Descriptor?5at?5?$CI?$AA@ 1002e91c     libvcruntime:undname.obj
 0002:00004938       ??_C@_0BD@LGICGFMM@?5Base?5Class?5Array?8?$AA@ 1002e938     libvcruntime:undname.obj
 0002:0000494c       ??_C@_0BN@MECKDCOJ@?5Class?5Hierarchy?5Descriptor?8?$AA@ 1002e94c     libvcruntime:undname.obj
 0002:0000496c       ??_C@_0BK@CFCOFLF@?5Complete?5Object?5Locator?8?$AA@ 1002e96c     libvcruntime:undname.obj
 0002:000049a8       _standard_lookup_table     1002e9a8     libucrt:output.obj
 0002:00004a04       ??_C@_06OJHGLDPL@?$CInull?$CJ?$AA@ 1002ea04     libucrt:output.obj
 0002:00004a0c       ??_C@_1O@CEDCILHN@?$AA?$CI?$AAn?$AAu?$AAl?$AAl?$AA?$CJ?$AA?$AA@ 1002ea0c     libucrt:output.obj
 0002:00004a20       ___acrt_exception_action_table 1002ea20     libucrt:exception_filter.obj
 0002:00004ab0       ___acrt_signal_action_table_count 1002eab0     libucrt:exception_filter.obj
 0002:00004ab4       ___acrt_signal_action_first_fpe_index 1002eab4     libucrt:exception_filter.obj
 0002:00004ab8       ___acrt_signal_action_fpe_count 1002eab8     libucrt:exception_filter.obj
 0002:00004abc       ??_C@_1BI@BGOHAHKC@?$AAm?$AAs?$AAc?$AAo?$AAr?$AAe?$AAe?$AA?4?$AAd?$AAl?$AAl?$AA?$AA@ 1002eabc     libucrt:exit.obj
 0002:00004ad4       ??_C@_0P@MIGLKIOC@CorExitProcess?$AA@ 1002ead4     libucrt:exit.obj
 0002:00004cc8       ??_C@_03OEIAHPBN@INF?$AA@  1002ecc8     libucrt:cvt.obj
 0002:00004ccc       ??_C@_03OJHLLCGB@inf?$AA@  1002eccc     libucrt:cvt.obj
 0002:00004cd0       ??_C@_03LKNCIKJB@NAN?$AA@  1002ecd0     libucrt:cvt.obj
 0002:00004cd4       ??_C@_03LHCJEHON@nan?$AA@  1002ecd4     libucrt:cvt.obj
 0002:00004cd8       ??_C@_09OFJJIMPC@NAN?$CISNAN?$CJ?$AA@ 1002ecd8     libucrt:cvt.obj
 0002:00004ce4       ??_C@_09IPFBKMDL@nan?$CIsnan?$CJ?$AA@ 1002ece4     libucrt:cvt.obj
 0002:00004cf0       ??_C@_08IKHNHAJ@NAN?$CIIND?$CJ?$AA@ 1002ecf0     libucrt:cvt.obj
 0002:00004cfc       ??_C@_08OFCDMILK@nan?$CIind?$CJ?$AA@ 1002ecfc     libucrt:cvt.obj
 0002:00004d08       ??_C@_05KLBDPFGC@e?$CL000?$AA@ 1002ed08     libucrt:cvt.obj
 0002:00004d10       ??_C@_03KOEHGMDN@Sun?$AA@  1002ed10     libucrt:nlsdata.obj
 0002:00004d14       ??_C@_03PDAGKDH@Mon?$AA@   1002ed14     libucrt:nlsdata.obj
 0002:00004d18       ??_C@_03NAGEINEP@Tue?$AA@  1002ed18     libucrt:nlsdata.obj
 0002:00004d1c       ??_C@_03MHOMLAJA@Wed?$AA@  1002ed1c     libucrt:nlsdata.obj
 0002:00004d20       ??_C@_03IOFIKPDN@Thu?$AA@  1002ed20     libucrt:nlsdata.obj
 0002:00004d24       ??_C@_03IDIOELNC@Fri?$AA@  1002ed24     libucrt:nlsdata.obj
 0002:00004d28       ??_C@_03FEFJNEK@Sat?$AA@   1002ed28     libucrt:nlsdata.obj
 0002:00004d2c       ??_C@_06OOPIFAJ@Sunday?$AA@ 1002ed2c     libucrt:nlsdata.obj
 0002:00004d34       ??_C@_06JLEDEDGH@Monday?$AA@ 1002ed34     libucrt:nlsdata.obj
 0002:00004d3c       ??_C@_07BAAGCFCM@Tuesday?$AA@ 1002ed3c     libucrt:nlsdata.obj
 0002:00004d44       ??_C@_09DLIGFAKA@Wednesday?$AA@ 1002ed44     libucrt:nlsdata.obj
 0002:00004d50       ??_C@_08HACCIKIA@Thursday?$AA@ 1002ed50     libucrt:nlsdata.obj
 0002:00004d5c       ??_C@_06JECMNKMI@Friday?$AA@ 1002ed5c     libucrt:nlsdata.obj
 0002:00004d64       ??_C@_08INBOOONO@Saturday?$AA@ 1002ed64     libucrt:nlsdata.obj
 0002:00004d70       ??_C@_03JIHJHPIE@Jan?$AA@  1002ed70     libucrt:nlsdata.obj
 0002:00004d74       ??_C@_03HJBDCHOM@Feb?$AA@  1002ed74     libucrt:nlsdata.obj
 0002:00004d78       ??_C@_03ODNJBKGA@Mar?$AA@  1002ed78     libucrt:nlsdata.obj
 0002:00004d7c       ??_C@_03LEOLGMJP@Apr?$AA@  1002ed7c     libucrt:nlsdata.obj
 0002:00004d80       ??_C@_03CNMDKL@May?$AA@    1002ed80     libucrt:nlsdata.obj
 0002:00004d84       ??_C@_03IDFGHECI@Jun?$AA@  1002ed84     libucrt:nlsdata.obj
 0002:00004d88       ??_C@_03LBGABGKK@Jul?$AA@  1002ed88     libucrt:nlsdata.obj
 0002:00004d8c       ??_C@_03IFJFEIGA@Aug?$AA@  1002ed8c     libucrt:nlsdata.obj
 0002:00004d90       ??_C@_03GGCAPAJC@Sep?$AA@  1002ed90     libucrt:nlsdata.obj
 0002:00004d94       ??_C@_03BMAOKBAD@Oct?$AA@  1002ed94     libucrt:nlsdata.obj
 0002:00004d98       ??_C@_03JPJOFNIA@Nov?$AA@  1002ed98     libucrt:nlsdata.obj
 0002:00004d9c       ??_C@_03MKABNOCG@Dec?$AA@  1002ed9c     libucrt:nlsdata.obj
 0002:00004da0       ??_C@_07CGJPFGJA@January?$AA@ 1002eda0     libucrt:nlsdata.obj
 0002:00004da8       ??_C@_08GNJGEPFN@February?$AA@ 1002eda8     libucrt:nlsdata.obj
 0002:00004db4       ??_C@_05HPCKOFNC@March?$AA@ 1002edb4     libucrt:nlsdata.obj
 0002:00004dbc       ??_C@_05DMJDNLEJ@April?$AA@ 1002edbc     libucrt:nlsdata.obj
 0002:00004dc4       ??_C@_04CNLMGBGM@June?$AA@ 1002edc4     libucrt:nlsdata.obj
 0002:00004dcc       ??_C@_04MIEPOIFP@July?$AA@ 1002edcc     libucrt:nlsdata.obj
 0002:00004dd4       ??_C@_06LBBHFDDG@August?$AA@ 1002edd4     libucrt:nlsdata.obj
 0002:00004ddc       ??_C@_09BHHEALKD@September?$AA@ 1002eddc     libucrt:nlsdata.obj
 0002:00004de8       ??_C@_07JJNFCEND@October?$AA@ 1002ede8     libucrt:nlsdata.obj
 0002:00004df0       ??_C@_08HCHEGEOA@November?$AA@ 1002edf0     libucrt:nlsdata.obj
 0002:00004dfc       ??_C@_08EDHMEBNP@December?$AA@ 1002edfc     libucrt:nlsdata.obj
 0002:00004e08       ??_C@_02DEDBPAFC@AM?$AA@   1002ee08     libucrt:nlsdata.obj
 0002:00004e0c       ??_C@_02CJNFDJBF@PM?$AA@   1002ee0c     libucrt:nlsdata.obj
 0002:00004e10       ??_C@_08BPBNCDIB@MM?1dd?1yy?$AA@ 1002ee10     libucrt:nlsdata.obj
 0002:00004e1c       ??_C@_0BE@CKGJFCPC@dddd?0?5MMMM?5dd?0?5yyyy?$AA@ 1002ee1c     libucrt:nlsdata.obj
 0002:00004e30       ??_C@_08JCCMCCIL@HH?3mm?3ss?$AA@ 1002ee30     libucrt:nlsdata.obj
 0002:00004e3c       ??_C@_17MBGCMIPB@?$AAS?$AAu?$AAn?$AA?$AA@ 1002ee3c     libucrt:nlsdata.obj
 0002:00004e44       ??_C@_17KBOMKBF@?$AAM?$AAo?$AAn?$AA?$AA@ 1002ee44     libucrt:nlsdata.obj
 0002:00004e4c       ??_C@_17BMKGEGOJ@?$AAT?$AAu?$AAe?$AA?$AA@ 1002ee4c     libucrt:nlsdata.obj
 0002:00004e54       ??_C@_17CJEDCEPE@?$AAW?$AAe?$AAd?$AA?$AA@ 1002ee54     libucrt:nlsdata.obj
 0002:00004e5c       ??_C@_17PDPHAADD@?$AAT?$AAh?$AAu?$AA?$AA@ 1002ee5c     libucrt:nlsdata.obj
 0002:00004e64       ??_C@_17HFOLPPLP@?$AAF?$AAr?$AAi?$AA?$AA@ 1002ee64     libucrt:nlsdata.obj
 0002:00004e6c       ??_C@_17GGIBDPIH@?$AAS?$AAa?$AAt?$AA?$AA@ 1002ee6c     libucrt:nlsdata.obj
 0002:00004e74       ??_C@_1O@IHNHDHPB@?$AAS?$AAu?$AAn?$AAd?$AAa?$AAy?$AA?$AA@ 1002ee74     libucrt:nlsdata.obj
 0002:00004e84       ??_C@_1O@MMNBFLIA@?$AAM?$AAo?$AAn?$AAd?$AAa?$AAy?$AA?$AA@ 1002ee84     libucrt:nlsdata.obj
 0002:00004e94       ??_C@_1BA@ENFBFFEK@?$AAT?$AAu?$AAe?$AAs?$AAd?$AAa?$AAy?$AA?$AA@ 1002ee94     libucrt:nlsdata.obj
 0002:00004ea4       ??_C@_1BE@EBOGMDOH@?$AAW?$AAe?$AAd?$AAn?$AAe?$AAs?$AAd?$AAa?$AAy?$AA?$AA@ 1002eea4     libucrt:nlsdata.obj
 0002:00004eb8       ??_C@_1BC@HHMNLIHE@?$AAT?$AAh?$AAu?$AAr?$AAs?$AAd?$AAa?$AAy?$AA?$AA@ 1002eeb8     libucrt:nlsdata.obj
 0002:00004ecc       ??_C@_1O@PDICJHAG@?$AAF?$AAr?$AAi?$AAd?$AAa?$AAy?$AA?$AA@ 1002eecc     libucrt:nlsdata.obj
 0002:00004edc       ??_C@_1BC@ENMNNPAJ@?$AAS?$AAa?$AAt?$AAu?$AAr?$AAd?$AAa?$AAy?$AA?$AA@ 1002eedc     libucrt:nlsdata.obj
 0002:00004ef0       ??_C@_17DKNBKCHM@?$AAJ?$AAa?$AAn?$AA?$AA@ 1002eef0     libucrt:nlsdata.obj
 0002:00004ef8       ??_C@_17LMDJEKJN@?$AAF?$AAe?$AAb?$AA?$AA@ 1002eef8     libucrt:nlsdata.obj
 0002:00004f00       ??_C@_17CKNLEDEC@?$AAM?$AAa?$AAr?$AA?$AA@ 1002ef00     libucrt:nlsdata.obj
 0002:00004f08       ??_C@_17LFPOIHDD@?$AAA?$AAp?$AAr?$AA?$AA@ 1002ef08     libucrt:nlsdata.obj
 0002:00004f10       ??_C@_17PNNKMEED@?$AAM?$AAa?$AAy?$AA?$AA@ 1002ef10     libucrt:nlsdata.obj
 0002:00004f18       ??_C@_17KCJGOCPB@?$AAJ?$AAu?$AAn?$AA?$AA@ 1002ef18     libucrt:nlsdata.obj
 0002:00004f20       ??_C@_17IJPCKHK@?$AAJ?$AAu?$AAl?$AA?$AA@ 1002ef20     libucrt:nlsdata.obj
 0002:00004f28       ??_C@_17ICPELBCN@?$AAA?$AAu?$AAg?$AA?$AA@ 1002ef28     libucrt:nlsdata.obj
 0002:00004f30       ??_C@_17HCHCOKMG@?$AAS?$AAe?$AAp?$AA?$AA@ 1002ef30     libucrt:nlsdata.obj
 0002:00004f38       ??_C@_17FNLKOI@?$AAO?$AAc?$AAt?$AA?$AA@ 1002ef38     libucrt:nlsdata.obj
 0002:00004f40       ??_C@_17BBDMLCIG@?$AAN?$AAo?$AAv?$AA?$AA@ 1002ef40     libucrt:nlsdata.obj
 0002:00004f48       ??_C@_17EGKACKIF@?$AAD?$AAe?$AAc?$AA?$AA@ 1002ef48     libucrt:nlsdata.obj
 0002:00004f50       ??_C@_1BA@EFMEIEBA@?$AAJ?$AAa?$AAn?$AAu?$AAa?$AAr?$AAy?$AA?$AA@ 1002ef50     libucrt:nlsdata.obj
 0002:00004f60       ??_C@_1BC@JGDDFFAM@?$AAF?$AAe?$AAb?$AAr?$AAu?$AAa?$AAr?$AAy?$AA?$AA@ 1002ef60     libucrt:nlsdata.obj
 0002:00004f74       ??_C@_1M@IKEENEDF@?$AAM?$AAa?$AAr?$AAc?$AAh?$AA?$AA@ 1002ef74     libucrt:nlsdata.obj
 0002:00004f80       ??_C@_1M@GJNLMHFD@?$AAA?$AAp?$AAr?$AAi?$AAl?$AA?$AA@ 1002ef80     libucrt:nlsdata.obj
 0002:00004f8c       ??_C@_19EPFLPGAP@?$AAJ?$AAu?$AAn?$AAe?$AA?$AA@ 1002ef8c     libucrt:nlsdata.obj
 0002:00004f98       ??_C@_19BIFMLPCD@?$AAJ?$AAu?$AAl?$AAy?$AA?$AA@ 1002ef98     libucrt:nlsdata.obj
 0002:00004fa4       ??_C@_1O@PAHLKOAC@?$AAA?$AAu?$AAg?$AAu?$AAs?$AAt?$AA?$AA@ 1002efa4     libucrt:nlsdata.obj
 0002:00004fb4       ??_C@_1BE@DKAAMBJL@?$AAS?$AAe?$AAp?$AAt?$AAe?$AAm?$AAb?$AAe?$AAr?$AA?$AA@ 1002efb4     libucrt:nlsdata.obj
 0002:00004fc8       ??_C@_1BA@EPANDLNG@?$AAO?$AAc?$AAt?$AAo?$AAb?$AAe?$AAr?$AA?$AA@ 1002efc8     libucrt:nlsdata.obj
 0002:00004fd8       ??_C@_1BC@BGLIFPF@?$AAN?$AAo?$AAv?$AAe?$AAm?$AAb?$AAe?$AAr?$AA?$AA@ 1002efd8     libucrt:nlsdata.obj
 0002:00004fec       ??_C@_1BC@FEMKIFH@?$AAD?$AAe?$AAc?$AAe?$AAm?$AAb?$AAe?$AAr?$AA?$AA@ 1002efec     libucrt:nlsdata.obj
 0002:00005000       ??_C@_15ODEHAHHF@?$AAA?$AAM?$AA?$AA@ 1002f000     libucrt:nlsdata.obj
 0002:00005008       ??_C@_15CLMNNGEL@?$AAP?$AAM?$AA?$AA@ 1002f008     libucrt:nlsdata.obj
 0002:00005010       ??_C@_1BC@IEBCMHCM@?$AAM?$AAM?$AA?1?$AAd?$AAd?$AA?1?$AAy?$AAy?$AA?$AA@ 1002f010     libucrt:nlsdata.obj
 0002:00005024       ??_C@_1CI@KNAKOEBC@?$AAd?$AAd?$AAd?$AAd?$AA?0?$AA?5?$AAM?$AAM?$AAM?$AAM?$AA?5?$AAd?$AAd?$AA?0?$AA?5?$AAy?$AAy?$AAy?$AAy?$AA?$AA@ 1002f024     libucrt:nlsdata.obj
 0002:0000504c       ??_C@_1BC@GDGBMEMK@?$AAH?$AAH?$AA?3?$AAm?$AAm?$AA?3?$AAs?$AAs?$AA?$AA@ 1002f04c     libucrt:nlsdata.obj
 0002:00005060       ??_C@_1M@BMHNFIME@?$AAe?$AAn?$AA?9?$AAU?$AAS?$AA?$AA@ 1002f060     libucrt:nlsdata.obj
 0002:00005070       ___lc_time_c               1002f070     libucrt:nlsdata.obj
 0002:000051d8       __wctype                   1002f1d8     libucrt:ctype.obj
 0002:000053e0       ___newctype                1002f3e0     libucrt:ctype.obj
 0002:000056e0       ___newclmap                1002f6e0     libucrt:ctype.obj
 0002:00005860       ___newcumap                1002f860     libucrt:ctype.obj
 0002:00005a30       ??_C@_1EG@CNNIPFIM@?$AAa?$AAp?$AAi?$AA?9?$AAm?$AAs?$AA?9?$AAw?$AAi?$AAn?$AA?9?$AAa?$AAp?$AAp?$AAm?$AAo?$AAd?$AAe?$AAl?$AA?9?$AAr?$AAu?$AAn?$AAt?$AAi?$AAm?$AAe?$AA?9?$AAl?$AA1?$AA?9?$AA1@ 1002fa30     libucrt:winapi_thunks.obj
 0002:00005a78       ??_C@_1EA@JGEFHKEI@?$AAa?$AAp?$AAi?$AA?9?$AAm?$AAs?$AA?9?$AAw?$AAi?$AAn?$AA?9?$AAc?$AAo?$AAr?$AAe?$AA?9?$AAd?$AAa?$AAt?$AAe?$AAt?$AAi?$AAm?$AAe?$AA?9?$AAl?$AA1?$AA?9?$AA1?$AA?9?$AA1?$AA?$AA@ 1002fa78     libucrt:winapi_thunks.obj
 0002:00005ab8       ??_C@_1DI@GCIAAENM@?$AAa?$AAp?$AAi?$AA?9?$AAm?$AAs?$AA?9?$AAw?$AAi?$AAn?$AA?9?$AAc?$AAo?$AAr?$AAe?$AA?9?$AAf?$AAi?$AAl?$AAe?$AA?9?$AAl?$AA2?$AA?9?$AA1?$AA?9?$AA1?$AA?$AA@ 1002fab8     libucrt:winapi_thunks.obj
 0002:00005af0       ??_C@_1EI@MPIAOHOC@?$AAa?$AAp?$AAi?$AA?9?$AAm?$AAs?$AA?9?$AAw?$AAi?$AAn?$AA?9?$AAc?$AAo?$AAr?$AAe?$AA?9?$AAl?$AAo?$AAc?$AAa?$AAl?$AAi?$AAz?$AAa?$AAt?$AAi?$AAo?$AAn?$AA?9?$AAl?$AA1?$AA?9@ 1002faf0     libucrt:winapi_thunks.obj
 0002:00005b38       ??_C@_1FK@FPHCKFIE@?$AAa?$AAp?$AAi?$AA?9?$AAm?$AAs?$AA?9?$AAw?$AAi?$AAn?$AA?9?$AAc?$AAo?$AAr?$AAe?$AA?9?$AAl?$AAo?$AAc?$AAa?$AAl?$AAi?$AAz?$AAa?$AAt?$AAi?$AAo?$AAn?$AA?9?$AAo?$AAb?$AAs@ 1002fb38     libucrt:winapi_thunks.obj
 0002:00005b98       ??_C@_1EM@DILCGIIO@?$AAa?$AAp?$AAi?$AA?9?$AAm?$AAs?$AA?9?$AAw?$AAi?$AAn?$AA?9?$AAc?$AAo?$AAr?$AAe?$AA?9?$AAp?$AAr?$AAo?$AAc?$AAe?$AAs?$AAs?$AAt?$AAh?$AAr?$AAe?$AAa?$AAd?$AAs?$AA?9?$AAl@ 1002fb98     libucrt:winapi_thunks.obj
 0002:00005be4       ??_C@_1DM@LNCGDDPN@?$AAa?$AAp?$AAi?$AA?9?$AAm?$AAs?$AA?9?$AAw?$AAi?$AAn?$AA?9?$AAc?$AAo?$AAr?$AAe?$AA?9?$AAs?$AAt?$AAr?$AAi?$AAn?$AAg?$AA?9?$AAl?$AA1?$AA?9?$AA1?$AA?9?$AA0?$AA?$AA@ 1002fbe4     libucrt:winapi_thunks.obj
 0002:00005c20       ??_C@_1DO@FPAPJEMD@?$AAa?$AAp?$AAi?$AA?9?$AAm?$AAs?$AA?9?$AAw?$AAi?$AAn?$AA?9?$AAc?$AAo?$AAr?$AAe?$AA?9?$AAs?$AAy?$AAs?$AAi?$AAn?$AAf?$AAo?$AA?9?$AAl?$AA1?$AA?9?$AA2?$AA?9?$AA1?$AA?$AA@ 1002fc20     libucrt:winapi_thunks.obj
 0002:00005c60       ??_C@_1DK@NDHNAHIO@?$AAa?$AAp?$AAi?$AA?9?$AAm?$AAs?$AA?9?$AAw?$AAi?$AAn?$AA?9?$AAc?$AAo?$AAr?$AAe?$AA?9?$AAw?$AAi?$AAn?$AAr?$AAt?$AA?9?$AAl?$AA1?$AA?9?$AA1?$AA?9?$AA0?$AA?$AA@ 1002fc60     libucrt:winapi_thunks.obj
 0002:00005c9c       ??_C@_1DM@KGHDGBCM@?$AAa?$AAp?$AAi?$AA?9?$AAm?$AAs?$AA?9?$AAw?$AAi?$AAn?$AA?9?$AAc?$AAo?$AAr?$AAe?$AA?9?$AAx?$AAs?$AAt?$AAa?$AAt?$AAe?$AA?9?$AAl?$AA2?$AA?9?$AA1?$AA?9?$AA0?$AA?$AA@ 1002fc9c     libucrt:winapi_thunks.obj
 0002:00005cd8       ??_C@_1EO@IJIOEFOH@?$AAa?$AAp?$AAi?$AA?9?$AAm?$AAs?$AA?9?$AAw?$AAi?$AAn?$AA?9?$AAr?$AAt?$AAc?$AAo?$AAr?$AAe?$AA?9?$AAn?$AAt?$AAu?$AAs?$AAe?$AAr?$AA?9?$AAw?$AAi?$AAn?$AAd?$AAo?$AAw?$AA?9@ 1002fcd8     libucrt:winapi_thunks.obj
 0002:00005d28       ??_C@_1FG@HHGEKANL@?$AAa?$AAp?$AAi?$AA?9?$AAm?$AAs?$AA?9?$AAw?$AAi?$AAn?$AA?9?$AAs?$AAe?$AAc?$AAu?$AAr?$AAi?$AAt?$AAy?$AA?9?$AAs?$AAy?$AAs?$AAt?$AAe?$AAm?$AAf?$AAu?$AAn?$AAc?$AAt?$AAi@ 1002fd28     libucrt:winapi_thunks.obj
 0002:00005d80       ??_C@_1FG@NCKKOLKO@?$AAe?$AAx?$AAt?$AA?9?$AAm?$AAs?$AA?9?$AAw?$AAi?$AAn?$AA?9?$AAk?$AAe?$AAr?$AAn?$AAe?$AAl?$AA3?$AA2?$AA?9?$AAp?$AAa?$AAc?$AAk?$AAa?$AAg?$AAe?$AA?9?$AAc?$AAu?$AAr?$AAr@ 1002fd80     libucrt:winapi_thunks.obj
 0002:00005dd8       ??_C@_1EG@DBIOJECG@?$AAe?$AAx?$AAt?$AA?9?$AAm?$AAs?$AA?9?$AAw?$AAi?$AAn?$AA?9?$AAn?$AAt?$AAu?$AAs?$AAe?$AAr?$AA?9?$AAd?$AAi?$AAa?$AAl?$AAo?$AAg?$AAb?$AAo?$AAx?$AA?9?$AAl?$AA1?$AA?9?$AA1@ 1002fdd8     libucrt:winapi_thunks.obj
 0002:00005e20       ??_C@_1EO@FIHMJCLF@?$AAe?$AAx?$AAt?$AA?9?$AAm?$AAs?$AA?9?$AAw?$AAi?$AAn?$AA?9?$AAn?$AAt?$AAu?$AAs?$AAe?$AAr?$AA?9?$AAw?$AAi?$AAn?$AAd?$AAo?$AAw?$AAs?$AAt?$AAa?$AAt?$AAi?$AAo?$AAn?$AA?9@ 1002fe20     libucrt:winapi_thunks.obj
 0002:00005e70       ??_C@_1BC@DNHGCMLG@?$AAa?$AAd?$AAv?$AAa?$AAp?$AAi?$AA3?$AA2?$AA?$AA@ 1002fe70     libucrt:winapi_thunks.obj
 0002:00005e84       ??_C@_1O@BCCLBEOE@?$AAu?$AAs?$AAe?$AAr?$AA3?$AA2?$AA?$AA@ 1002fe84     libucrt:winapi_thunks.obj
 0002:00005ebc       ??_C@_0BE@JOGNEJCI@GetCurrentPackageId?$AA@ 1002febc     libucrt:winapi_thunks.obj
 0002:00005ee0       ??_C@_0O@KKBNKAPF@LCMapStringEx?$AA@ 1002fee0     libucrt:winapi_thunks.obj
 0002:00005ef8       ??_C@_0BB@HBDEELFH@LocaleNameToLCID?$AA@ 1002fef8     libucrt:winapi_thunks.obj
 0002:00005f1c       ??_C@_1M@HPNHIDJI@?$AAj?$AAa?$AA?9?$AAJ?$AAP?$AA?$AA@ 1002ff1c     libucrt:mbctype.obj
 0002:00005f28       ??_C@_1M@BIBDDEMK@?$AAz?$AAh?$AA?9?$AAC?$AAN?$AA?$AA@ 1002ff28     libucrt:mbctype.obj
 0002:00005f34       ??_C@_1M@JLOOOEGK@?$AAk?$AAo?$AA?9?$AAK?$AAR?$AA?$AA@ 1002ff34     libucrt:mbctype.obj
 0002:00005f40       ??_C@_1M@CLNBBOPM@?$AAz?$AAh?$AA?9?$AAT?$AAW?$AA?$AA@ 1002ff40     libucrt:mbctype.obj
 0002:00005f50       ?large_power_data@?1??multiply_by_power_of_ten@__crt_strtox@@YA_NAAUbig_integer@2@I@Z@4QBIB 1002ff50     libucrt:cfout.obj
 0002:00006858       ?large_power_indices@?1??multiply_by_power_of_ten@__crt_strtox@@YA_NAAUbig_integer@2@I@Z@4QBUunpack_index@?1??12@YA_N0I@Z@B 10030858     libucrt:cfout.obj
 0002:000068f0       ?small_powers_of_ten@?6??multiply_by_power_of_ten@__crt_strtox@@YA_NAAUbig_integer@2@I@Z@4QBIB 100308f0     libucrt:cfout.obj
 0002:00006914       ??_C@_01GBGANLPD@0?$AA@    10030914     libucrt:cfout.obj
 0002:00006918       ??_C@_05DNEBIAHO@1?$CDINF?$AA@ 10030918     libucrt:cfout.obj
 0002:00006920       ??_C@_06IMKFLFPG@1?$CDQNAN?$AA@ 10030920     libucrt:cfout.obj
 0002:00006928       ??_C@_06PGGFOGJG@1?$CDSNAN?$AA@ 10030928     libucrt:cfout.obj
 0002:00006930       ??_C@_05PHHOCPM@1?$CDIND?$AA@ 10030930     libucrt:cfout.obj
 0002:00006938       ??_C@_15PJPFLCCM@?$AAu?$AAk?$AA?$AA@ 10030938     libucrt:get_qualified_locale.obj
 0002:00007060       ??_C@_15EMKDOKLE@?$AAa?$AAr?$AA?$AA@ 10031060     libucrt:lcidtoname_downlevel.obj
 0002:00007068       ??_C@_15KNPADPLH@?$AAb?$AAg?$AA?$AA@ 10031068     libucrt:lcidtoname_downlevel.obj
 0002:00007070       ??_C@_15EDMHLDMO@?$AAc?$AAa?$AA?$AA@ 10031070     libucrt:lcidtoname_downlevel.obj
 0002:00007078       ??_C@_1O@BPEAJADD@?$AAz?$AAh?$AA?9?$AAC?$AAH?$AAS?$AA?$AA@ 10031078     libucrt:lcidtoname_downlevel.obj
 0002:00007088       ??_C@_15LJNHCMNK@?$AAc?$AAs?$AA?$AA@ 10031088     libucrt:lcidtoname_downlevel.obj
 0002:00007090       ??_C@_15FOMCIDHG@?$AAd?$AAa?$AA?$AA@ 10031090     libucrt:lcidtoname_downlevel.obj
 0002:00007098       ??_C@_15NBKABECB@?$AAd?$AAe?$AA?$AA@ 10031098     libucrt:lcidtoname_downlevel.obj
 0002:000070a0       ??_C@_15GHPEIIAO@?$AAe?$AAl?$AA?$AA@ 100310a0     libucrt:lcidtoname_downlevel.obj
 0002:000070a8       ??_C@_15MNPNEAIF@?$AAe?$AAn?$AA?$AA@ 100310a8     libucrt:lcidtoname_downlevel.obj
 0002:000070b0       ??_C@_15GPIOMPMH@?$AAe?$AAs?$AA?$AA@ 100310b0     libucrt:lcidtoname_downlevel.obj
 0002:000070b8       ??_C@_15NGLOAKJC@?$AAf?$AAi?$AA?$AA@ 100310b8     libucrt:lcidtoname_downlevel.obj
 0002:000070c0       ??_C@_15FBKGNKAM@?$AAf?$AAr?$AA?$AA@ 100310c0     libucrt:lcidtoname_downlevel.obj
 0002:000070c8       ??_C@_15KGGCNEFK@?$AAh?$AAe?$AA?$AA@ 100310c8     libucrt:lcidtoname_downlevel.obj
 0002:000070d0       ??_C@_15PGHLIDMF@?$AAh?$AAu?$AA?$AA@ 100310d0     libucrt:lcidtoname_downlevel.obj
 0002:000070d8       ??_C@_15BIEMAPLM@?$AAi?$AAs?$AA?$AA@ 100310d8     libucrt:lcidtoname_downlevel.obj
 0002:000070e0       ??_C@_15IFJLDHAF@?$AAi?$AAt?$AA?$AA@ 100310e0     libucrt:lcidtoname_downlevel.obj
 0002:000070e8       ??_C@_15GEMIOCAG@?$AAj?$AAa?$AA?$AA@ 100310e8     libucrt:lcidtoname_downlevel.obj
 0002:000070f0       ??_C@_15EPELEGJA@?$AAk?$AAo?$AA?$AA@ 100310f0     libucrt:lcidtoname_downlevel.obj
 0002:000070f8       ??_C@_15NDDHIMN@?$AAn?$AAl?$AA?$AA@ 100310f8     libucrt:lcidtoname_downlevel.obj
 0002:00007100       ??_C@_15BPIGNHCD@?$AAn?$AAo?$AA?$AA@ 10031100     libucrt:lcidtoname_downlevel.obj
 0002:00007108       ??_C@_15DEOPBLCG@?$AAp?$AAl?$AA?$AA@ 10031108     libucrt:lcidtoname_downlevel.obj
 0002:00007110       ??_C@_15KBECGEFG@?$AAp?$AAt?$AA?$AA@ 10031110     libucrt:lcidtoname_downlevel.obj
 0002:00007118       ??_C@_15GLJCBFMD@?$AAr?$AAo?$AA?$AA@ 10031118     libucrt:lcidtoname_downlevel.obj
 0002:00007120       ??_C@_15FEDGKCDI@?$AAr?$AAu?$AA?$AA@ 10031120     libucrt:lcidtoname_downlevel.obj
 0002:00007128       ??_C@_15GLKMLLHM@?$AAh?$AAr?$AA?$AA@ 10031128     libucrt:lcidtoname_downlevel.obj
 0002:00007130       ??_C@_15CPKMFBDB@?$AAs?$AAk?$AA?$AA@ 10031130     libucrt:lcidtoname_downlevel.obj
 0002:00007138       ??_C@_15BAAIOGMK@?$AAs?$AAq?$AA?$AA@ 10031138     libucrt:lcidtoname_downlevel.obj
 0002:00007140       ??_C@_15INNPNOHD@?$AAs?$AAv?$AA?$AA@ 10031140     libucrt:lcidtoname_downlevel.obj
 0002:00007148       ??_C@_15CABMMOGH@?$AAt?$AAh?$AA?$AA@ 10031148     libucrt:lcidtoname_downlevel.obj
 0002:00007150       ??_C@_15BPLIHJJM@?$AAt?$AAr?$AA?$AA@ 10031150     libucrt:lcidtoname_downlevel.obj
 0002:00007158       ??_C@_15NEOEKKDJ@?$AAu?$AAr?$AA?$AA@ 10031158     libucrt:lcidtoname_downlevel.obj
 0002:00007160       ??_C@_15NFICGAJK@?$AAi?$AAd?$AA?$AA@ 10031160     libucrt:lcidtoname_downlevel.obj
 0002:00007168       ??_C@_15HPJPHDM@?$AAb?$AAe?$AA?$AA@ 10031168     libucrt:lcidtoname_downlevel.obj
 0002:00007170       ??_C@_15LCHLGJII@?$AAs?$AAl?$AA?$AA@ 10031170     libucrt:lcidtoname_downlevel.obj
 0002:00007178       ??_C@_15PCFJPHHO@?$AAe?$AAt?$AA?$AA@ 10031178     libucrt:lcidtoname_downlevel.obj
 0002:00007180       ??_C@_15HPFPGODN@?$AAl?$AAv?$AA?$AA@ 10031180     libucrt:lcidtoname_downlevel.obj
 0002:00007188       ??_C@_15NFFGKGLG@?$AAl?$AAt?$AA?$AA@ 10031188     libucrt:lcidtoname_downlevel.obj
 0002:00007190       ??_C@_15BDAKCCHN@?$AAf?$AAa?$AA?$AA@ 10031190     libucrt:lcidtoname_downlevel.obj
 0002:00007198       ??_C@_15NFGIAIAJ@?$AAv?$AAi?$AA?$AA@ 10031198     libucrt:lcidtoname_downlevel.obj
 0002:000071a0       ??_C@_15LMKNDMHN@?$AAh?$AAy?$AA?$AA@ 100311a0     libucrt:lcidtoname_downlevel.obj
 0002:000071a8       ??_C@_15IJBHMCFL@?$AAa?$AAz?$AA?$AA@ 100311a8     libucrt:lcidtoname_downlevel.obj
 0002:000071b0       ??_C@_15EKOFJABL@?$AAe?$AAu?$AA?$AA@ 100311b0     libucrt:lcidtoname_downlevel.obj
 0002:000071b8       ??_C@_15BGHADCNK@?$AAm?$AAk?$AA?$AA@ 100311b8     libucrt:lcidtoname_downlevel.obj
 0002:000071c0       ??_C@_15JDNICKHM@?$AAa?$AAf?$AA?$AA@ 100311c0     libucrt:lcidtoname_downlevel.obj
 0002:000071c8       ??_C@_15KPJEDBKD@?$AAk?$AAa?$AA?$AA@ 100311c8     libucrt:lcidtoname_downlevel.obj
 0002:000071d0       ??_C@_15PDNFFFEO@?$AAf?$AAo?$AA?$AA@ 100311d0     libucrt:lcidtoname_downlevel.obj
 0002:000071d8       ??_C@_15OMLEGLOC@?$AAh?$AAi?$AA?$AA@ 100311d8     libucrt:lcidtoname_downlevel.obj
 0002:000071e0       ??_C@_15IDNNENKK@?$AAm?$AAs?$AA?$AA@ 100311e0     libucrt:lcidtoname_downlevel.obj
 0002:000071e8       ??_C@_15MACJNBMH@?$AAk?$AAk?$AA?$AA@ 100311e8     libucrt:lcidtoname_downlevel.obj
 0002:000071f0       ??_C@_15DKDJEOND@?$AAk?$AAy?$AA?$AA@ 100311f0     libucrt:lcidtoname_downlevel.obj
 0002:000071f8       ??_C@_15DFGDLJBG@?$AAs?$AAw?$AA?$AA@ 100311f8     libucrt:lcidtoname_downlevel.obj
 0002:00007200       ??_C@_15BBFAICNG@?$AAu?$AAz?$AA?$AA@ 10031200     libucrt:lcidtoname_downlevel.obj
 0002:00007208       ??_C@_15DKNDCGEA@?$AAt?$AAt?$AA?$AA@ 10031208     libucrt:lcidtoname_downlevel.obj
 0002:00007210       ??_C@_15MGIFMDPL@?$AAp?$AAa?$AA?$AA@ 10031210     libucrt:lcidtoname_downlevel.obj
 0002:00007218       ??_C@_15HCNDBBA@?$AAg?$AAu?$AA?$AA@ 10031218     libucrt:lcidtoname_downlevel.obj
 0002:00007220       ??_C@_15FNBEIBON@?$AAt?$AAa?$AA?$AA@ 10031220     libucrt:lcidtoname_downlevel.obj
 0002:00007228       ??_C@_15NCHGBGLK@?$AAt?$AAe?$AA?$AA@ 10031228     libucrt:lcidtoname_downlevel.obj
 0002:00007230       ??_C@_15PHPHCBPF@?$AAk?$AAn?$AA?$AA@ 10031230     libucrt:lcidtoname_downlevel.obj
 0002:00007238       ??_C@_15DLGBCKMP@?$AAm?$AAr?$AA?$AA@ 10031238     libucrt:lcidtoname_downlevel.obj
 0002:00007240       ??_C@_15EABBLBFF@?$AAs?$AAa?$AA?$AA@ 10031240     libucrt:lcidtoname_downlevel.obj
 0002:00007248       ??_C@_15CBKOMCOI@?$AAm?$AAn?$AA?$AA@ 10031248     libucrt:lcidtoname_downlevel.obj
 0002:00007250       ??_C@_15CKDMCJAF@?$AAg?$AAl?$AA?$AA@ 10031250     libucrt:lcidtoname_downlevel.obj
 0002:00007258       ??_C@_17CNJFBPG@?$AAk?$AAo?$AAk?$AA?$AA@ 10031258     libucrt:lcidtoname_downlevel.obj
 0002:00007260       ??_C@_17FFBJICPL@?$AAs?$AAy?$AAr?$AA?$AA@ 10031260     libucrt:lcidtoname_downlevel.obj
 0002:00007268       ??_C@_17KPNDCPAF@?$AAd?$AAi?$AAv?$AA?$AA@ 10031268     libucrt:lcidtoname_downlevel.obj
 0002:00007270       ??_C@_1M@OKAHONE@?$AAa?$AAr?$AA?9?$AAS?$AAA?$AA?$AA@ 10031270     libucrt:lcidtoname_downlevel.obj
 0002:0000727c       ??_C@_1M@FFFIGIGK@?$AAb?$AAg?$AA?9?$AAB?$AAG?$AA?$AA@ 1003127c     libucrt:lcidtoname_downlevel.obj
 0002:00007288       ??_C@_1M@BJNKEDC@?$AAc?$AAa?$AA?9?$AAE?$AAS?$AA?$AA@ 10031288     libucrt:lcidtoname_downlevel.obj
 0002:00007294       ??_C@_1M@IJJHFJHA@?$AAc?$AAs?$AA?9?$AAC?$AAZ?$AA?$AA@ 10031294     libucrt:lcidtoname_downlevel.obj
 0002:000072a0       ??_C@_1M@CLPEOBGI@?$AAd?$AAa?$AA?9?$AAD?$AAK?$AA?$AA@ 100312a0     libucrt:lcidtoname_downlevel.obj
 0002:000072ac       ??_C@_1M@MCMADGCB@?$AAd?$AAe?$AA?9?$AAD?$AAE?$AA?$AA@ 100312ac     libucrt:lcidtoname_downlevel.obj
 0002:000072b8       ??_C@_1M@OOCKEMAM@?$AAe?$AAl?$AA?9?$AAG?$AAR?$AA?$AA@ 100312b8     libucrt:lcidtoname_downlevel.obj
 0002:000072c4       ??_C@_1M@DDNJFGID@?$AAf?$AAi?$AA?9?$AAF?$AAI?$AA?$AA@ 100312c4     libucrt:lcidtoname_downlevel.obj
 0002:000072d0       ??_C@_1M@GLIPPMAC@?$AAf?$AAr?$AA?9?$AAF?$AAR?$AA?$AA@ 100312d0     libucrt:lcidtoname_downlevel.obj
 0002:000072dc       ??_C@_1M@GFMCHPE@?$AAh?$AAe?$AA?9?$AAI?$AAL?$AA?$AA@ 100312dc     libucrt:lcidtoname_downlevel.obj
 0002:000072e8       ??_C@_1M@MHLPGNKM@?$AAh?$AAu?$AA?9?$AAH?$AAU?$AA?$AA@ 100312e8     libucrt:lcidtoname_downlevel.obj
 0002:000072f4       ??_C@_1M@LPDDNNPN@?$AAi?$AAs?$AA?9?$AAI?$AAS?$AA?$AA@ 100312f4     libucrt:lcidtoname_downlevel.obj
 0002:00007300       ??_C@_1M@MADIPODN@?$AAi?$AAt?$AA?9?$AAI?$AAT?$AA?$AA@ 10031300     libucrt:lcidtoname_downlevel.obj
 0002:0000730c       ??_C@_1M@IHBJJGG@?$AAn?$AAl?$AA?9?$AAN?$AAL?$AA?$AA@ 1003130c     libucrt:lcidtoname_downlevel.obj
 0002:00007318       ??_C@_1M@EANAGDL@?$AAn?$AAb?$AA?9?$AAN?$AAO?$AA?$AA@ 10031318     libucrt:lcidtoname_downlevel.obj
 0002:00007324       ??_C@_1M@NEIEMEGP@?$AAp?$AAl?$AA?9?$AAP?$AAL?$AA?$AA@ 10031324     libucrt:lcidtoname_downlevel.obj
 0002:00007330       ??_C@_1M@BOCFIGEP@?$AAp?$AAt?$AA?9?$AAB?$AAR?$AA?$AA@ 10031330     libucrt:lcidtoname_downlevel.obj
 0002:0000733c       ??_C@_1M@IMPFOPBG@?$AAr?$AAo?$AA?9?$AAR?$AAO?$AA?$AA@ 1003133c     libucrt:lcidtoname_downlevel.obj
 0002:00007348       ??_C@_1M@IDNNEJMM@?$AAr?$AAu?$AA?9?$AAR?$AAU?$AA?$AA@ 10031348     libucrt:lcidtoname_downlevel.obj
 0002:00007354       ??_C@_1M@LILEEOGM@?$AAh?$AAr?$AA?9?$AAH?$AAR?$AA?$AA@ 10031354     libucrt:lcidtoname_downlevel.obj
 0002:00007360       ??_C@_1M@FKIFEHPB@?$AAs?$AAk?$AA?9?$AAS?$AAK?$AA?$AA@ 10031360     libucrt:lcidtoname_downlevel.obj
 0002:0000736c       ??_C@_1M@LJMAMNPJ@?$AAs?$AAq?$AA?9?$AAA?$AAL?$AA?$AA@ 1003136c     libucrt:lcidtoname_downlevel.obj
 0002:00007378       ??_C@_1M@GIAKDKJK@?$AAs?$AAv?$AA?9?$AAS?$AAE?$AA?$AA@ 10031378     libucrt:lcidtoname_downlevel.obj
 0002:00007384       ??_C@_1M@MKJKIKCL@?$AAt?$AAh?$AA?9?$AAT?$AAH?$AA?$AA@ 10031384     libucrt:lcidtoname_downlevel.obj
 0002:00007390       ??_C@_1M@MFLCCMPB@?$AAt?$AAr?$AA?9?$AAT?$AAR?$AA?$AA@ 10031390     libucrt:lcidtoname_downlevel.obj
 0002:0000739c       ??_C@_1M@OIJHDKJN@?$AAu?$AAr?$AA?9?$AAP?$AAK?$AA?$AA@ 1003139c     libucrt:lcidtoname_downlevel.obj
 0002:000073a8       ??_C@_1M@LHIPCIEK@?$AAi?$AAd?$AA?9?$AAI?$AAD?$AA?$AA@ 100313a8     libucrt:lcidtoname_downlevel.obj
 0002:000073b4       ??_C@_1M@MFMOBGI@?$AAu?$AAk?$AA?9?$AAU?$AAA?$AA?$AA@ 100313b4     libucrt:lcidtoname_downlevel.obj
 0002:000073c0       ??_C@_1M@OBGLJIPL@?$AAb?$AAe?$AA?9?$AAB?$AAY?$AA?$AA@ 100313c0     libucrt:lcidtoname_downlevel.obj
 0002:000073cc       ??_C@_1M@BCFAJEAD@?$AAs?$AAl?$AA?9?$AAS?$AAI?$AA?$AA@ 100313cc     libucrt:lcidtoname_downlevel.obj
 0002:000073d8       ??_C@_1M@FKFFEDDN@?$AAe?$AAt?$AA?9?$AAE?$AAE?$AA?$AA@ 100313d8     libucrt:lcidtoname_downlevel.obj
 0002:000073e4       ??_C@_1M@KGKKAACI@?$AAl?$AAv?$AA?9?$AAL?$AAV?$AA?$AA@ 100313e4     libucrt:lcidtoname_downlevel.obj
 0002:000073f0       ??_C@_1M@IFGBIJO@?$AAl?$AAt?$AA?9?$AAL?$AAT?$AA?$AA@ 100313f0     libucrt:lcidtoname_downlevel.obj
 0002:000073fc       ??_C@_1M@FGEAHEDM@?$AAf?$AAa?$AA?9?$AAI?$AAR?$AA?$AA@ 100313fc     libucrt:lcidtoname_downlevel.obj
 0002:00007408       ??_C@_1M@KBMAIBFN@?$AAv?$AAi?$AA?9?$AAV?$AAN?$AA?$AA@ 10031408     libucrt:lcidtoname_downlevel.obj
 0002:00007414       ??_C@_1M@GPCBKDJK@?$AAh?$AAy?$AA?9?$AAA?$AAM?$AA?$AA@ 10031414     libucrt:lcidtoname_downlevel.obj
 0002:00007420       ??_C@_1BG@BECMDDJB@?$AAa?$AAz?$AA?9?$AAA?$AAZ?$AA?9?$AAL?$AAa?$AAt?$AAn?$AA?$AA@ 10031420     libucrt:lcidtoname_downlevel.obj
 0002:00007438       ??_C@_1M@MAOFCAEA@?$AAe?$AAu?$AA?9?$AAE?$AAS?$AA?$AA@ 10031438     libucrt:lcidtoname_downlevel.obj
 0002:00007444       ??_C@_1M@IGHABKPI@?$AAm?$AAk?$AA?9?$AAM?$AAK?$AA?$AA@ 10031444     libucrt:lcidtoname_downlevel.obj
 0002:00007450       ??_C@_1M@IAIGNEJG@?$AAt?$AAn?$AA?9?$AAZ?$AAA?$AA?$AA@ 10031450     libucrt:lcidtoname_downlevel.obj
 0002:0000745c       ??_C@_1M@IIJCOJFA@?$AAx?$AAh?$AA?9?$AAZ?$AAA?$AA?$AA@ 1003145c     libucrt:lcidtoname_downlevel.obj
 0002:00007468       ??_C@_1M@LGPJHNJH@?$AAz?$AAu?$AA?9?$AAZ?$AAA?$AA?$AA@ 10031468     libucrt:lcidtoname_downlevel.obj
 0002:00007474       ??_C@_1M@HOKAOIO@?$AAa?$AAf?$AA?9?$AAZ?$AAA?$AA?$AA@ 10031474     libucrt:lcidtoname_downlevel.obj
 0002:00007480       ??_C@_1M@DPCLHLIE@?$AAk?$AAa?$AA?9?$AAG?$AAE?$AA?$AA@ 10031480     libucrt:lcidtoname_downlevel.obj
 0002:0000748c       ??_C@_1M@BLKMHJBI@?$AAf?$AAo?$AA?9?$AAF?$AAO?$AA?$AA@ 1003148c     libucrt:lcidtoname_downlevel.obj
 0002:00007498       ??_C@_1M@LGGJAPPB@?$AAh?$AAi?$AA?9?$AAI?$AAN?$AA?$AA@ 10031498     libucrt:lcidtoname_downlevel.obj
 0002:000074a4       ??_C@_1M@FIKPIHFE@?$AAm?$AAt?$AA?9?$AAM?$AAT?$AA?$AA@ 100314a4     libucrt:lcidtoname_downlevel.obj
 0002:000074b0       ??_C@_1M@HEGGPBFA@?$AAs?$AAe?$AA?9?$AAN?$AAO?$AA?$AA@ 100314b0     libucrt:lcidtoname_downlevel.obj
 0002:000074bc       ??_C@_1M@EIBJEEPA@?$AAm?$AAs?$AA?9?$AAM?$AAY?$AA?$AA@ 100314bc     libucrt:lcidtoname_downlevel.obj
 0002:000074c8       ??_C@_1M@FHLBGMPP@?$AAk?$AAk?$AA?9?$AAK?$AAZ?$AA?$AA@ 100314c8     libucrt:lcidtoname_downlevel.obj
 0002:000074d4       ??_C@_1M@NGJJLCGI@?$AAk?$AAy?$AA?9?$AAK?$AAG?$AA?$AA@ 100314d4     libucrt:lcidtoname_downlevel.obj
 0002:000074e0       ??_C@_1M@GIENNBFC@?$AAs?$AAw?$AA?9?$AAK?$AAE?$AA?$AA@ 100314e0     libucrt:lcidtoname_downlevel.obj
 0002:000074ec       ??_C@_1BG@NDGMJIMJ@?$AAu?$AAz?$AA?9?$AAU?$AAZ?$AA?9?$AAL?$AAa?$AAt?$AAn?$AA?$AA@ 100314ec     libucrt:lcidtoname_downlevel.obj
 0002:00007504       ??_C@_1M@IDCCIHBC@?$AAt?$AAt?$AA?9?$AAR?$AAU?$AA?$AA@ 10031504     libucrt:lcidtoname_downlevel.obj
 0002:00007510       ??_C@_1M@LOICPMOJ@?$AAb?$AAn?$AA?9?$AAI?$AAN?$AA?$AA@ 10031510     libucrt:lcidtoname_downlevel.obj
 0002:0000751c       ??_C@_1M@KPKKNEAH@?$AAp?$AAa?$AA?9?$AAI?$AAN?$AA?$AA@ 1003151c     libucrt:lcidtoname_downlevel.obj
 0002:00007528       ??_C@_1M@PJGPPBOG@?$AAg?$AAu?$AA?9?$AAI?$AAN?$AA?$AA@ 10031528     libucrt:lcidtoname_downlevel.obj
 0002:00007534       ??_C@_1M@KMKMOPHI@?$AAt?$AAa?$AA?9?$AAI?$AAN?$AA?$AA@ 10031534     libucrt:lcidtoname_downlevel.obj
 0002:00007540       ??_C@_1M@KFEHEPAC@?$AAt?$AAe?$AA?9?$AAI?$AAN?$AA?$AA@ 10031540     libucrt:lcidtoname_downlevel.obj
 0002:0000754c       ??_C@_1M@CDCLMGHI@?$AAk?$AAn?$AA?9?$AAI?$AAN?$AA?$AA@ 1003154c     libucrt:lcidtoname_downlevel.obj
 0002:00007558       ??_C@_1M@MIODLDKF@?$AAm?$AAl?$AA?9?$AAI?$AAN?$AA?$AA@ 10031558     libucrt:lcidtoname_downlevel.obj
 0002:00007564       ??_C@_1M@PBIEACPO@?$AAm?$AAr?$AA?9?$AAI?$AAN?$AA?$AA@ 10031564     libucrt:lcidtoname_downlevel.obj
 0002:00007570       ??_C@_1M@NIDEAGPH@?$AAs?$AAa?$AA?9?$AAI?$AAN?$AA?$AA@ 10031570     libucrt:lcidtoname_downlevel.obj
 0002:0000757c       ??_C@_1M@FHIHCBIO@?$AAm?$AAn?$AA?9?$AAM?$AAN?$AA?$AA@ 1003157c     libucrt:lcidtoname_downlevel.obj
 0002:00007588       ??_C@_1M@JAIJPENP@?$AAc?$AAy?$AA?9?$AAG?$AAB?$AA?$AA@ 10031588     libucrt:lcidtoname_downlevel.obj
 0002:00007594       ??_C@_1M@PHGFBEPN@?$AAg?$AAl?$AA?9?$AAE?$AAS?$AA?$AA@ 10031594     libucrt:lcidtoname_downlevel.obj
 0002:000075a0       ??_C@_1O@KPIPDNCP@?$AAk?$AAo?$AAk?$AA?9?$AAI?$AAN?$AA?$AA@ 100315a0     libucrt:lcidtoname_downlevel.obj
 0002:000075b0       ??_C@_1O@KNHJLDJA@?$AAs?$AAy?$AAr?$AA?9?$AAS?$AAY?$AA?$AA@ 100315b0     libucrt:lcidtoname_downlevel.obj
 0002:000075c0       ??_C@_1O@MKEKBLAH@?$AAd?$AAi?$AAv?$AA?9?$AAM?$AAV?$AA?$AA@ 100315c0     libucrt:lcidtoname_downlevel.obj
 0002:000075d0       ??_C@_1O@OHDCKDDF@?$AAq?$AAu?$AAz?$AA?9?$AAB?$AAO?$AA?$AA@ 100315d0     libucrt:lcidtoname_downlevel.obj
 0002:000075e0       ??_C@_1M@LEPJNLFD@?$AAn?$AAs?$AA?9?$AAZ?$AAA?$AA?$AA@ 100315e0     libucrt:lcidtoname_downlevel.obj
 0002:000075ec       ??_C@_1M@OMLEIIJB@?$AAm?$AAi?$AA?9?$AAN?$AAZ?$AA?$AA@ 100315ec     libucrt:lcidtoname_downlevel.obj
 0002:000075f8       ??_C@_1M@PMPEAILG@?$AAa?$AAr?$AA?9?$AAI?$AAQ?$AA?$AA@ 100315f8     libucrt:lcidtoname_downlevel.obj
 0002:00007604       ??_C@_1M@CNKPNOEE@?$AAd?$AAe?$AA?9?$AAC?$AAH?$AA?$AA@ 10031604     libucrt:lcidtoname_downlevel.obj
 0002:00007610       ??_C@_1M@LKMGMLKO@?$AAe?$AAn?$AA?9?$AAG?$AAB?$AA?$AA@ 10031610     libucrt:lcidtoname_downlevel.obj
 0002:0000761c       ??_C@_1M@PGKJFFGL@?$AAe?$AAs?$AA?9?$AAM?$AAX?$AA?$AA@ 1003161c     libucrt:lcidtoname_downlevel.obj
 0002:00007628       ??_C@_1M@DNNANBDC@?$AAf?$AAr?$AA?9?$AAB?$AAE?$AA?$AA@ 10031628     libucrt:lcidtoname_downlevel.obj
 0002:00007634       ??_C@_1M@HLGMDFHM@?$AAi?$AAt?$AA?9?$AAC?$AAH?$AA?$AA@ 10031634     libucrt:lcidtoname_downlevel.obj
 0002:00007640       ??_C@_1M@CLLBGJH@?$AAn?$AAl?$AA?9?$AAB?$AAE?$AA?$AA@ 10031640     libucrt:lcidtoname_downlevel.obj
 0002:0000764c       ??_C@_1M@BODBOGLF@?$AAn?$AAn?$AA?9?$AAN?$AAO?$AA?$AA@ 1003164c     libucrt:lcidtoname_downlevel.obj
 0002:00007658       ??_C@_1M@HFFAHKAD@?$AAp?$AAt?$AA?9?$AAP?$AAT?$AA?$AA@ 10031658     libucrt:lcidtoname_downlevel.obj
 0002:00007664       ??_C@_1BG@LNOAKHIE@?$AAs?$AAr?$AA?9?$AAS?$AAP?$AA?9?$AAL?$AAa?$AAt?$AAn?$AA?$AA@ 10031664     libucrt:lcidtoname_downlevel.obj
 0002:0000767c       ??_C@_1M@HBMHBGAK@?$AAs?$AAv?$AA?9?$AAF?$AAI?$AA?$AA@ 1003167c     libucrt:lcidtoname_downlevel.obj
 0002:00007688       ??_C@_1BG@DGCJGJBE@?$AAa?$AAz?$AA?9?$AAA?$AAZ?$AA?9?$AAC?$AAy?$AAr?$AAl?$AA?$AA@ 10031688     libucrt:lcidtoname_downlevel.obj
 0002:000076a0       ??_C@_1M@KEJDAAHB@?$AAs?$AAe?$AA?9?$AAS?$AAE?$AA?$AA@ 100316a0     libucrt:lcidtoname_downlevel.obj
 0002:000076ac       ??_C@_1M@HEIBJJAD@?$AAm?$AAs?$AA?9?$AAB?$AAN?$AA?$AA@ 100316ac     libucrt:lcidtoname_downlevel.obj
 0002:000076b8       ??_C@_1BG@PBGJMCEM@?$AAu?$AAz?$AA?9?$AAU?$AAZ?$AA?9?$AAC?$AAy?$AAr?$AAl?$AA?$AA@ 100316b8     libucrt:lcidtoname_downlevel.obj
 0002:000076d0       ??_C@_1O@LAOBCMDF@?$AAq?$AAu?$AAz?$AA?9?$AAE?$AAC?$AA?$AA@ 100316d0     libucrt:lcidtoname_downlevel.obj
 0002:000076e0       ??_C@_1M@POEEMAIO@?$AAa?$AAr?$AA?9?$AAE?$AAG?$AA?$AA@ 100316e0     libucrt:lcidtoname_downlevel.obj
 0002:000076ec       ??_C@_1M@EFAKDEDL@?$AAz?$AAh?$AA?9?$AAH?$AAK?$AA?$AA@ 100316ec     libucrt:lcidtoname_downlevel.obj
 0002:000076f8       ??_C@_1M@HKKIJHGI@?$AAd?$AAe?$AA?9?$AAA?$AAT?$AA?$AA@ 100316f8     libucrt:lcidtoname_downlevel.obj
 0002:00007704       ??_C@_1M@KBFBEHJF@?$AAe?$AAn?$AA?9?$AAA?$AAU?$AA?$AA@ 10031704     libucrt:lcidtoname_downlevel.obj
 0002:00007710       ??_C@_1M@MNPLFAAH@?$AAe?$AAs?$AA?9?$AAE?$AAS?$AA?$AA@ 10031710     libucrt:lcidtoname_downlevel.obj
 0002:0000771c       ??_C@_1M@HJOOJFMA@?$AAf?$AAr?$AA?9?$AAC?$AAA?$AA?$AA@ 1003171c     libucrt:lcidtoname_downlevel.obj
 0002:00007728       ??_C@_1BG@JPOFPNAB@?$AAs?$AAr?$AA?9?$AAS?$AAP?$AA?9?$AAC?$AAy?$AAr?$AAl?$AA?$AA@ 10031728     libucrt:lcidtoname_downlevel.obj
 0002:00007740       ??_C@_1M@LNFOCMOB@?$AAs?$AAe?$AA?9?$AAF?$AAI?$AA?$AA@ 10031740     libucrt:lcidtoname_downlevel.obj
 0002:0000774c       ??_C@_1O@MGJBOAMB@?$AAq?$AAu?$AAz?$AA?9?$AAP?$AAE?$AA?$AA@ 1003174c     libucrt:lcidtoname_downlevel.obj
 0002:0000775c       ??_C@_1M@GJINLBOK@?$AAa?$AAr?$AA?9?$AAL?$AAY?$AA?$AA@ 1003175c     libucrt:lcidtoname_downlevel.obj
 0002:00007768       ??_C@_1M@GGMNHJNL@?$AAz?$AAh?$AA?9?$AAS?$AAG?$AA?$AA@ 10031768     libucrt:lcidtoname_downlevel.obj
 0002:00007774       ??_C@_1M@HOIKODND@?$AAd?$AAe?$AA?9?$AAL?$AAU?$AA?$AA@ 10031774     libucrt:lcidtoname_downlevel.obj
 0002:00007780       ??_C@_1M@DDOCCGFG@?$AAe?$AAn?$AA?9?$AAC?$AAA?$AA?$AA@ 10031780     libucrt:lcidtoname_downlevel.obj
 0002:0000778c       ??_C@_1M@BNOEMJLF@?$AAe?$AAs?$AA?9?$AAG?$AAT?$AA?$AA@ 1003178c     libucrt:lcidtoname_downlevel.obj
 0002:00007798       ??_C@_1M@EOGNKEK@?$AAf?$AAr?$AA?9?$AAC?$AAH?$AA?$AA@ 10031798     libucrt:lcidtoname_downlevel.obj
 0002:000077a4       ??_C@_1M@FLIDJFHL@?$AAh?$AAr?$AA?9?$AAB?$AAA?$AA?$AA@ 100317a4     libucrt:lcidtoname_downlevel.obj
 0002:000077b0       ??_C@_1O@FMCELNAJ@?$AAs?$AAm?$AAj?$AA?9?$AAN?$AAO?$AA?$AA@ 100317b0     libucrt:lcidtoname_downlevel.obj
 0002:000077c0       ??_C@_1M@JHGLJMGJ@?$AAa?$AAr?$AA?9?$AAD?$AAZ?$AA?$AA@ 100317c0     libucrt:lcidtoname_downlevel.obj
 0002:000077cc       ??_C@_1M@JKKFDCNP@?$AAz?$AAh?$AA?9?$AAM?$AAO?$AA?$AA@ 100317cc     libucrt:lcidtoname_downlevel.obj
 0002:000077d8       ??_C@_1M@GEEFALPE@?$AAd?$AAe?$AA?9?$AAL?$AAI?$AA?$AA@ 100317d8     libucrt:lcidtoname_downlevel.obj
 0002:000077e4       ??_C@_1M@IGEOFBG@?$AAe?$AAn?$AA?9?$AAN?$AAZ?$AA?$AA@ 100317e4     libucrt:lcidtoname_downlevel.obj
 0002:000077f0       ??_C@_1M@KDBONEHP@?$AAe?$AAs?$AA?9?$AAC?$AAR?$AA?$AA@ 100317f0     libucrt:lcidtoname_downlevel.obj
 0002:000077fc       ??_C@_1M@FHMDOHNN@?$AAf?$AAr?$AA?9?$AAL?$AAU?$AA?$AA@ 100317fc     libucrt:lcidtoname_downlevel.obj
 0002:00007808       ??_C@_1BG@NFKKMAFG@?$AAb?$AAs?$AA?9?$AAB?$AAA?$AA?9?$AAL?$AAa?$AAt?$AAn?$AA?$AA@ 10031808     libucrt:lcidtoname_downlevel.obj
 0002:00007820       ??_C@_1O@IMNBEMCI@?$AAs?$AAm?$AAj?$AA?9?$AAS?$AAE?$AA?$AA@ 10031820     libucrt:lcidtoname_downlevel.obj
 0002:00007830       ??_C@_1M@DHHMBNDP@?$AAa?$AAr?$AA?9?$AAM?$AAA?$AA?$AA@ 10031830     libucrt:lcidtoname_downlevel.obj
 0002:0000783c       ??_C@_1M@BNBLJCGH@?$AAe?$AAn?$AA?9?$AAI?$AAE?$AA?$AA@ 1003183c     libucrt:lcidtoname_downlevel.obj
 0002:00007848       ??_C@_1M@GEPAFMDL@?$AAe?$AAs?$AA?9?$AAP?$AAA?$AA?$AA@ 10031848     libucrt:lcidtoname_downlevel.obj
 0002:00007854       ??_C@_1M@OJONDMDL@?$AAf?$AAr?$AA?9?$AAM?$AAC?$AA?$AA@ 10031854     libucrt:lcidtoname_downlevel.obj
 0002:00007860       ??_C@_1BG@OBCNFJB@?$AAs?$AAr?$AA?9?$AAB?$AAA?$AA?9?$AAL?$AAa?$AAt?$AAn?$AA?$AA@ 10031860     libucrt:lcidtoname_downlevel.obj
 0002:00007878       ??_C@_1O@KEMEEGPO@?$AAs?$AAm?$AAa?$AA?9?$AAN?$AAO?$AA?$AA@ 10031878     libucrt:lcidtoname_downlevel.obj
 0002:00007888       ??_C@_1M@ELMGFODK@?$AAa?$AAr?$AA?9?$AAT?$AAN?$AA?$AA@ 10031888     libucrt:lcidtoname_downlevel.obj
 0002:00007894       ??_C@_1M@BHDLHFAF@?$AAe?$AAn?$AA?9?$AAZ?$AAA?$AA?$AA@ 10031894     libucrt:lcidtoname_downlevel.obj
 0002:000078a0       ??_C@_1M@BMGIGLIF@?$AAe?$AAs?$AA?9?$AAD?$AAO?$AA?$AA@ 100318a0     libucrt:lcidtoname_downlevel.obj
 0002:000078ac       ??_C@_1BG@CMBHIPBE@?$AAs?$AAr?$AA?9?$AAB?$AAA?$AA?9?$AAC?$AAy?$AAr?$AAl?$AA?$AA@ 100318ac     libucrt:lcidtoname_downlevel.obj
 0002:000078c4       ??_C@_1O@HEDBLHNP@?$AAs?$AAm?$AAa?$AA?9?$AAS?$AAE?$AA?$AA@ 100318c4     libucrt:lcidtoname_downlevel.obj
 0002:000078d4       ??_C@_1M@DAGCADIM@?$AAa?$AAr?$AA?9?$AAO?$AAM?$AA?$AA@ 100318d4     libucrt:lcidtoname_downlevel.obj
 0002:000078e0       ??_C@_1M@FODLMICG@?$AAe?$AAn?$AA?9?$AAJ?$AAM?$AA?$AA@ 100318e0     libucrt:lcidtoname_downlevel.obj
 0002:000078ec       ??_C@_1M@DNMLCIHB@?$AAe?$AAs?$AA?9?$AAV?$AAE?$AA?$AA@ 100318ec     libucrt:lcidtoname_downlevel.obj
 0002:000078f8       ??_C@_1O@EOKHMKJK@?$AAs?$AAm?$AAs?$AA?9?$AAF?$AAI?$AA?$AA@ 100318f8     libucrt:lcidtoname_downlevel.obj
 0002:00007908       ??_C@_1M@CAFJMKOF@?$AAa?$AAr?$AA?9?$AAY?$AAE?$AA?$AA@ 10031908     libucrt:lcidtoname_downlevel.obj
 0002:00007914       ??_C@_1M@CBFHIJLI@?$AAe?$AAn?$AA?9?$AAC?$AAB?$AA?$AA@ 10031914     libucrt:lcidtoname_downlevel.obj
 0002:00007920       ??_C@_1M@BGNFLDN@?$AAe?$AAs?$AA?9?$AAC?$AAO?$AA?$AA@ 10031920     libucrt:lcidtoname_downlevel.obj
 0002:0000792c       ??_C@_1O@JMPHMAMC@?$AAs?$AAm?$AAn?$AA?9?$AAF?$AAI?$AA?$AA@ 1003192c     libucrt:lcidtoname_downlevel.obj
 0002:0000793c       ??_C@_1M@JLANABKE@?$AAa?$AAr?$AA?9?$AAS?$AAY?$AA?$AA@ 1003193c     libucrt:lcidtoname_downlevel.obj
 0002:00007948       ??_C@_1M@HPKGCFGN@?$AAe?$AAn?$AA?9?$AAB?$AAZ?$AA?$AA@ 10031948     libucrt:lcidtoname_downlevel.obj
 0002:00007954       ??_C@_1M@OLJCMLGM@?$AAe?$AAs?$AA?9?$AAP?$AAE?$AA?$AA@ 10031954     libucrt:lcidtoname_downlevel.obj
 0002:00007960       ??_C@_1M@MKKGFKLE@?$AAa?$AAr?$AA?9?$AAJ?$AAO?$AA?$AA@ 10031960     libucrt:lcidtoname_downlevel.obj
 0002:0000796c       ??_C@_1M@EKPGLDNI@?$AAe?$AAn?$AA?9?$AAT?$AAT?$AA?$AA@ 1003196c     libucrt:lcidtoname_downlevel.obj
 0002:00007978       ??_C@_1M@OONGHFHE@?$AAe?$AAs?$AA?9?$AAA?$AAR?$AA?$AA@ 10031978     libucrt:lcidtoname_downlevel.obj
 0002:00007984       ??_C@_1M@OOJFGBHE@?$AAa?$AAr?$AA?9?$AAL?$AAB?$AA?$AA@ 10031984     libucrt:lcidtoname_downlevel.obj
 0002:00007990       ??_C@_1M@GCEJHNEG@?$AAe?$AAn?$AA?9?$AAZ?$AAW?$AA?$AA@ 10031990     libucrt:lcidtoname_downlevel.obj
 0002:0000799c       ??_C@_1M@JNOCAHJI@?$AAe?$AAs?$AA?9?$AAE?$AAC?$AA?$AA@ 1003199c     libucrt:lcidtoname_downlevel.obj
 0002:000079a8       ??_C@_1M@JEFHPGGB@?$AAa?$AAr?$AA?9?$AAK?$AAW?$AA?$AA@ 100319a8     libucrt:lcidtoname_downlevel.obj
 0002:000079b4       ??_C@_1M@MLKIBJOJ@?$AAe?$AAn?$AA?9?$AAP?$AAH?$AA?$AA@ 100319b4     libucrt:lcidtoname_downlevel.obj
 0002:000079c0       ??_C@_1M@BDNIPEND@?$AAe?$AAs?$AA?9?$AAC?$AAL?$AA?$AA@ 100319c0     libucrt:lcidtoname_downlevel.obj
 0002:000079cc       ??_C@_1M@MPNMEKBD@?$AAa?$AAr?$AA?9?$AAA?$AAE?$AA?$AA@ 100319cc     libucrt:lcidtoname_downlevel.obj
 0002:000079d8       ??_C@_1M@KBJALCPI@?$AAe?$AAs?$AA?9?$AAU?$AAY?$AA?$AA@ 100319d8     libucrt:lcidtoname_downlevel.obj
 0002:000079e4       ??_C@_1M@LLCCOAGA@?$AAa?$AAr?$AA?9?$AAB?$AAH?$AA?$AA@ 100319e4     libucrt:lcidtoname_downlevel.obj
 0002:000079f0       ??_C@_1M@PBFNCDEL@?$AAe?$AAs?$AA?9?$AAP?$AAY?$AA?$AA@ 100319f0     libucrt:lcidtoname_downlevel.obj
 0002:000079fc       ??_C@_1M@EDGINPNP@?$AAa?$AAr?$AA?9?$AAQ?$AAA?$AA?$AA@ 100319fc     libucrt:lcidtoname_downlevel.obj
 0002:00007a08       ??_C@_1M@MKDBIIJI@?$AAe?$AAs?$AA?9?$AAB?$AAO?$AA?$AA@ 10031a08     libucrt:lcidtoname_downlevel.obj
 0002:00007a14       ??_C@_1M@CPKKEBLD@?$AAe?$AAs?$AA?9?$AAS?$AAV?$AA?$AA@ 10031a14     libucrt:lcidtoname_downlevel.obj
 0002:00007a20       ??_C@_1M@NDBGMMJL@?$AAe?$AAs?$AA?9?$AAH?$AAN?$AA?$AA@ 10031a20     libucrt:lcidtoname_downlevel.obj
 0002:00007a2c       ??_C@_1M@JIJIBHDP@?$AAe?$AAs?$AA?9?$AAN?$AAI?$AA?$AA@ 10031a2c     libucrt:lcidtoname_downlevel.obj
 0002:00007a38       ??_C@_1M@CGFMKEEK@?$AAe?$AAs?$AA?9?$AAP?$AAR?$AA?$AA@ 10031a38     libucrt:lcidtoname_downlevel.obj
 0002:00007a44       ??_C@_1O@ICJHKIIK@?$AAz?$AAh?$AA?9?$AAC?$AAH?$AAT?$AA?$AA@ 10031a44     libucrt:lcidtoname_downlevel.obj
 0002:00007a54       ??_C@_15CLNEJCE@?$AAs?$AAr?$AA?$AA@ 10031a54     libucrt:lcidtoname_downlevel.obj
 0002:00008180       ??_C@_1M@KAHEKEIG@?$AAa?$AAf?$AA?9?$AAz?$AAa?$AA?$AA@ 10032180     libucrt:lcidtoname_downlevel.obj
 0002:0000818c       ??_C@_1M@GIECOABL@?$AAa?$AAr?$AA?9?$AAa?$AAe?$AA?$AA@ 1003218c     libucrt:lcidtoname_downlevel.obj
 0002:00008198       ??_C@_1M@BMLMEKGI@?$AAa?$AAr?$AA?9?$AAb?$AAh?$AA?$AA@ 10032198     libucrt:lcidtoname_downlevel.obj
 0002:000081a4       ??_C@_1M@DAPFDGGB@?$AAa?$AAr?$AA?9?$AAd?$AAz?$AA?$AA@ 100321a4     libucrt:lcidtoname_downlevel.obj
 0002:000081b0       ??_C@_1M@FJNKGKIG@?$AAa?$AAr?$AA?9?$AAe?$AAg?$AA?$AA@ 100321b0     libucrt:lcidtoname_downlevel.obj
 0002:000081bc       ??_C@_1M@FLGKKCLO@?$AAa?$AAr?$AA?9?$AAi?$AAq?$AA?$AA@ 100321bc     libucrt:lcidtoname_downlevel.obj
 0002:000081c8       ??_C@_1M@GNDIPALM@?$AAa?$AAr?$AA?9?$AAj?$AAo?$AA?$AA@ 100321c8     libucrt:lcidtoname_downlevel.obj
 0002:000081d4       ??_C@_1M@DDMJFMGJ@?$AAa?$AAr?$AA?9?$AAk?$AAw?$AA?$AA@ 100321d4     libucrt:lcidtoname_downlevel.obj
 0002:000081e0       ??_C@_1M@EJALMLHM@?$AAa?$AAr?$AA?9?$AAl?$AAb?$AA?$AA@ 100321e0     libucrt:lcidtoname_downlevel.obj
 0002:000081ec       ??_C@_1M@MOBDBLOC@?$AAa?$AAr?$AA?9?$AAl?$AAy?$AA?$AA@ 100321ec     libucrt:lcidtoname_downlevel.obj
 0002:000081f8       ??_C@_1M@JAOCLHDH@?$AAa?$AAr?$AA?9?$AAm?$AAa?$AA?$AA@ 100321f8     libucrt:lcidtoname_downlevel.obj
 0002:00008204       ??_C@_1M@JHPMKJIE@?$AAa?$AAr?$AA?9?$AAo?$AAm?$AA?$AA@ 10032204     libucrt:lcidtoname_downlevel.obj
 0002:00008210       ??_C@_1M@OEPGHFNH@?$AAa?$AAr?$AA?9?$AAq?$AAa?$AA?$AA@ 10032210     libucrt:lcidtoname_downlevel.obj
 0002:0000821c       ??_C@_1M@KJDONENM@?$AAa?$AAr?$AA?9?$AAs?$AAa?$AA?$AA@ 1003221c     libucrt:lcidtoname_downlevel.obj
 0002:00008228       ??_C@_1M@DMJDKLKM@?$AAa?$AAr?$AA?9?$AAs?$AAy?$AA?$AA@ 10032228     libucrt:lcidtoname_downlevel.obj
 0002:00008234       ??_C@_1M@OMFIPEDC@?$AAa?$AAr?$AA?9?$AAt?$AAn?$AA?$AA@ 10032234     libucrt:lcidtoname_downlevel.obj
 0002:00008240       ??_C@_1M@IHMHGAON@?$AAa?$AAr?$AA?9?$AAy?$AAe?$AA?$AA@ 10032240     libucrt:lcidtoname_downlevel.obj
 0002:0000824c       ??_C@_1BG@KDCPGJGB@?$AAa?$AAz?$AA?9?$AAa?$AAz?$AA?9?$AAc?$AAy?$AAr?$AAl?$AA?$AA@ 1003224c     libucrt:lcidtoname_downlevel.obj
 0002:00008264       ??_C@_1BG@IBCKDDOE@?$AAa?$AAz?$AA?9?$AAa?$AAz?$AA?9?$AAl?$AAa?$AAt?$AAn?$AA?$AA@ 10032264     libucrt:lcidtoname_downlevel.obj
 0002:0000827c       ??_C@_1M@EGPFDCPD@?$AAb?$AAe?$AA?9?$AAb?$AAy?$AA?$AA@ 1003227c     libucrt:lcidtoname_downlevel.obj
 0002:00008288       ??_C@_1M@PCMGMCGC@?$AAb?$AAg?$AA?9?$AAb?$AAg?$AA?$AA@ 10032288     libucrt:lcidtoname_downlevel.obj
 0002:00008294       ??_C@_1M@BJBMFGOB@?$AAb?$AAn?$AA?9?$AAi?$AAn?$AA?$AA@ 10032294     libucrt:lcidtoname_downlevel.obj
 0002:000082a0       ??_C@_1BG@EAKMMACD@?$AAb?$AAs?$AA?9?$AAb?$AAa?$AA?9?$AAl?$AAa?$AAt?$AAn?$AA?$AA@ 100322a0     libucrt:lcidtoname_downlevel.obj
 0002:000082b8       ??_C@_1M@KGADAODK@?$AAc?$AAa?$AA?9?$AAe?$AAs?$AA?$AA@ 100322b8     libucrt:lcidtoname_downlevel.obj
 0002:000082c4       ??_C@_1M@COAJPDHI@?$AAc?$AAs?$AA?9?$AAc?$AAz?$AA?$AA@ 100322c4     libucrt:lcidtoname_downlevel.obj
 0002:000082d0       ??_C@_1M@DHBHFONH@?$AAc?$AAy?$AA?9?$AAg?$AAb?$AA?$AA@ 100322d0     libucrt:lcidtoname_downlevel.obj
 0002:000082dc       ??_C@_1M@IMGKELGA@?$AAd?$AAa?$AA?9?$AAd?$AAk?$AA?$AA@ 100322dc     libucrt:lcidtoname_downlevel.obj
 0002:000082e8       ??_C@_1M@NNDGDNGA@?$AAd?$AAe?$AA?9?$AAa?$AAt?$AA?$AA@ 100322e8     libucrt:lcidtoname_downlevel.obj
 0002:000082f4       ??_C@_1M@IKDBHEEM@?$AAd?$AAe?$AA?9?$AAc?$AAh?$AA?$AA@ 100322f4     libucrt:lcidtoname_downlevel.obj
 0002:00008300       ??_C@_1M@GFFOJMCJ@?$AAd?$AAe?$AA?9?$AAd?$AAe?$AA?$AA@ 10032300     libucrt:lcidtoname_downlevel.obj
 0002:0000830c       ??_C@_1M@MDNLKBPM@?$AAd?$AAe?$AA?9?$AAl?$AAi?$AA?$AA@ 1003230c     libucrt:lcidtoname_downlevel.obj
 0002:00008318       ??_C@_1M@NJBEEJNL@?$AAd?$AAe?$AA?9?$AAl?$AAu?$AA?$AA@ 10032318     libucrt:lcidtoname_downlevel.obj
 0002:00008324       ??_C@_1O@GNNELBAP@?$AAd?$AAi?$AAv?$AA?9?$AAm?$AAv?$AA?$AA@ 10032324     libucrt:lcidtoname_downlevel.obj
 0002:00008334       ??_C@_1M@EJLEOGAE@?$AAe?$AAl?$AA?9?$AAg?$AAr?$AA?$AA@ 10032334     libucrt:lcidtoname_downlevel.obj
 0002:00008340       ??_C@_1M@GMPONJN@?$AAe?$AAn?$AA?9?$AAa?$AAu?$AA?$AA@ 10032340     libucrt:lcidtoname_downlevel.obj
 0002:0000834c       ??_C@_1M@NIDIIPGF@?$AAe?$AAn?$AA?9?$AAb?$AAz?$AA?$AA@ 1003234c     libucrt:lcidtoname_downlevel.obj
 0002:00008358       ??_C@_1M@JEHMIMFO@?$AAe?$AAn?$AA?9?$AAc?$AAa?$AA?$AA@ 10032358     libucrt:lcidtoname_downlevel.obj
 0002:00008364       ??_C@_1M@IGMJCDLA@?$AAe?$AAn?$AA?9?$AAc?$AAb?$AA?$AA@ 10032364     libucrt:lcidtoname_downlevel.obj
 0002:00008370       ??_C@_1M@BNFIGBKG@?$AAe?$AAn?$AA?9?$AAg?$AAb?$AA?$AA@ 10032370     libucrt:lcidtoname_downlevel.obj
 0002:0000837c       ??_C@_1M@LKIFDIGP@?$AAe?$AAn?$AA?9?$AAi?$AAe?$AA?$AA@ 1003237c     libucrt:lcidtoname_downlevel.obj
 0002:00008388       ??_C@_1M@PJKFGCCO@?$AAe?$AAn?$AA?9?$AAj?$AAm?$AA?$AA@ 10032388     libucrt:lcidtoname_downlevel.obj
 0002:00008394       ??_C@_1M@KPPKEPBO@?$AAe?$AAn?$AA?9?$AAn?$AAz?$AA?$AA@ 10032394     libucrt:lcidtoname_downlevel.obj
 0002:000083a0       ??_C@_1M@GMDGLDOB@?$AAe?$AAn?$AA?9?$AAp?$AAh?$AA?$AA@ 100323a0     libucrt:lcidtoname_downlevel.obj
 0002:000083ac       ??_C@_1M@ONGIBJNA@?$AAe?$AAn?$AA?9?$AAt?$AAt?$AA?$AA@ 100323ac     libucrt:lcidtoname_downlevel.obj
 0002:000083b8       ??_C@_1M@LLODPCMM@?$AAe?$AAn?$AA?9?$AAu?$AAs?$AA?$AA@ 100323b8     libucrt:lcidtoname_downlevel.obj
 0002:000083c4       ??_C@_1M@LAKFNPAN@?$AAe?$AAn?$AA?9?$AAz?$AAa?$AA?$AA@ 100323c4     libucrt:lcidtoname_downlevel.obj
 0002:000083d0       ??_C@_1M@MFNHNHEO@?$AAe?$AAn?$AA?9?$AAz?$AAw?$AA?$AA@ 100323d0     libucrt:lcidtoname_downlevel.obj
 0002:000083dc       ??_C@_1M@EJEINPHM@?$AAe?$AAs?$AA?9?$AAa?$AAr?$AA?$AA@ 100323dc     libucrt:lcidtoname_downlevel.obj
 0002:000083e8       ??_C@_1M@GNKPCCJA@?$AAe?$AAs?$AA?9?$AAb?$AAo?$AA?$AA@ 100323e8     libucrt:lcidtoname_downlevel.obj
 0002:000083f4       ??_C@_1M@LEEGFONL@?$AAe?$AAs?$AA?9?$AAc?$AAl?$AA?$AA@ 100323f4     libucrt:lcidtoname_downlevel.obj
 0002:00008400       ??_C@_1M@KGPDPBDF@?$AAe?$AAs?$AA?9?$AAc?$AAo?$AA?$AA@ 10032400     libucrt:lcidtoname_downlevel.obj
 0002:0000840c       ??_C@_1M@EIAHOHH@?$AAe?$AAs?$AA?9?$AAc?$AAr?$AA?$AA@ 1003240c     libucrt:lcidtoname_downlevel.obj
 0002:00008418       ??_C@_1M@LLPGMBIN@?$AAe?$AAs?$AA?9?$AAd?$AAo?$AA?$AA@ 10032418     libucrt:lcidtoname_downlevel.obj
 0002:00008424       ??_C@_1M@DKHMKNJA@?$AAe?$AAs?$AA?9?$AAe?$AAc?$AA?$AA@ 10032424     libucrt:lcidtoname_downlevel.obj
 0002:00008430       ??_C@_1M@GKGFPKAP@?$AAe?$AAs?$AA?9?$AAe?$AAs?$AA?$AA@ 10032430     libucrt:lcidtoname_downlevel.obj
 0002:0000843c       ??_C@_1M@LKHKGDLN@?$AAe?$AAs?$AA?9?$AAg?$AAt?$AA?$AA@ 1003243c     libucrt:lcidtoname_downlevel.obj
 0002:00008448       ??_C@_1M@HEIIGGJD@?$AAe?$AAs?$AA?9?$AAh?$AAn?$AA?$AA@ 10032448     libucrt:lcidtoname_downlevel.obj
 0002:00008454       ??_C@_1M@FBDHPPGD@?$AAe?$AAs?$AA?9?$AAm?$AAx?$AA?$AA@ 10032454     libucrt:lcidtoname_downlevel.obj
 0002:00008460       ??_C@_1M@DPAGLNDH@?$AAe?$AAs?$AA?9?$AAn?$AAi?$AA?$AA@ 10032460     libucrt:lcidtoname_downlevel.obj
 0002:0000846c       ??_C@_1M@MDGOPGDD@?$AAe?$AAs?$AA?9?$AAp?$AAa?$AA?$AA@ 1003246c     libucrt:lcidtoname_downlevel.obj
 0002:00008478       ??_C@_1M@EMAMGBGE@?$AAe?$AAs?$AA?9?$AAp?$AAe?$AA?$AA@ 10032478     libucrt:lcidtoname_downlevel.obj
 0002:00008484       ??_C@_1M@IBMCAOEC@?$AAe?$AAs?$AA?9?$AAp?$AAr?$AA?$AA@ 10032484     libucrt:lcidtoname_downlevel.obj
 0002:00008490       ??_C@_1M@FGMDIJED@?$AAe?$AAs?$AA?9?$AAp?$AAy?$AA?$AA@ 10032490     libucrt:lcidtoname_downlevel.obj
 0002:0000849c       ??_C@_1M@IIDEOLLL@?$AAe?$AAs?$AA?9?$AAs?$AAv?$AA?$AA@ 1003249c     libucrt:lcidtoname_downlevel.obj
 0002:000084a8       ??_C@_1M@GAOBIPA@?$AAe?$AAs?$AA?9?$AAu?$AAy?$AA?$AA@ 100324a8     libucrt:lcidtoname_downlevel.obj
 0002:000084b4       ??_C@_1M@JKFFICHJ@?$AAe?$AAs?$AA?9?$AAv?$AAe?$AA?$AA@ 100324b4     libucrt:lcidtoname_downlevel.obj
 0002:000084c0       ??_C@_1M@PNMLOJDF@?$AAe?$AAt?$AA?9?$AAe?$AAe?$AA?$AA@ 100324c0     libucrt:lcidtoname_downlevel.obj
 0002:000084cc       ??_C@_1M@GHHLIKEI@?$AAe?$AAu?$AA?9?$AAe?$AAs?$AA?$AA@ 100324cc     libucrt:lcidtoname_downlevel.obj
 0002:000084d8       ??_C@_1M@PBNONODE@?$AAf?$AAa?$AA?9?$AAi?$AAr?$AA?$AA@ 100324d8     libucrt:lcidtoname_downlevel.obj
 0002:000084e4       ??_C@_1M@JEEHPMIL@?$AAf?$AAi?$AA?9?$AAf?$AAi?$AA?$AA@ 100324e4     libucrt:lcidtoname_downlevel.obj
 0002:000084f0       ??_C@_1M@LMDCNDBA@?$AAf?$AAo?$AA?9?$AAf?$AAo?$AA?$AA@ 100324f0     libucrt:lcidtoname_downlevel.obj
 0002:000084fc       ??_C@_1M@JKEOHLDK@?$AAf?$AAr?$AA?9?$AAb?$AAe?$AA?$AA@ 100324fc     libucrt:lcidtoname_downlevel.obj
 0002:00008508       ??_C@_1M@NOHADPMI@?$AAf?$AAr?$AA?9?$AAc?$AAa?$AA?$AA@ 10032508     libucrt:lcidtoname_downlevel.obj
 0002:00008514       ??_C@_1M@KDHIHAEC@?$AAf?$AAr?$AA?9?$AAc?$AAh?$AA?$AA@ 10032514     libucrt:lcidtoname_downlevel.obj
 0002:00008520       ??_C@_1M@MMBBFGAK@?$AAf?$AAr?$AA?9?$AAf?$AAr?$AA?$AA@ 10032520     libucrt:lcidtoname_downlevel.obj
 0002:0000852c       ??_C@_1M@PAFNENNF@?$AAf?$AAr?$AA?9?$AAl?$AAu?$AA?$AA@ 1003252c     libucrt:lcidtoname_downlevel.obj
 0002:00008538       ??_C@_1M@EOHDJGDD@?$AAf?$AAr?$AA?9?$AAm?$AAc?$AA?$AA@ 10032538     libucrt:lcidtoname_downlevel.obj
 0002:00008544       ??_C@_1M@FAPLLOPF@?$AAg?$AAl?$AA?9?$AAe?$AAs?$AA?$AA@ 10032544     libucrt:lcidtoname_downlevel.obj
 0002:00008550       ??_C@_1M@FOPBFLOO@?$AAg?$AAu?$AA?9?$AAi?$AAn?$AA?$AA@ 10032550     libucrt:lcidtoname_downlevel.obj
 0002:0000855c       ??_C@_1M@KBMCINPM@?$AAh?$AAe?$AA?9?$AAi?$AAl?$AA?$AA@ 1003255c     libucrt:lcidtoname_downlevel.obj
 0002:00008568       ??_C@_1M@BBPHKFPJ@?$AAh?$AAi?$AA?9?$AAi?$AAn?$AA?$AA@ 10032568     libucrt:lcidtoname_downlevel.obj
 0002:00008574       ??_C@_1M@PMBNDPHD@?$AAh?$AAr?$AA?9?$AAb?$AAa?$AA?$AA@ 10032574     libucrt:lcidtoname_downlevel.obj
 0002:00008580       ??_C@_1M@BPCKOEGE@?$AAh?$AAr?$AA?9?$AAh?$AAr?$AA?$AA@ 10032580     libucrt:lcidtoname_downlevel.obj
 0002:0000858c       ??_C@_1M@GACBMHKE@?$AAh?$AAu?$AA?9?$AAh?$AAu?$AA?$AA@ 1003258c     libucrt:lcidtoname_downlevel.obj
 0002:00008598       ??_C@_1M@MILPAJJC@?$AAh?$AAy?$AA?9?$AAa?$AAm?$AA?$AA@ 10032598     libucrt:lcidtoname_downlevel.obj
 0002:000085a4       ??_C@_1M@BABBICEC@?$AAi?$AAd?$AA?9?$AAi?$AAd?$AA?$AA@ 100325a4     libucrt:lcidtoname_downlevel.obj
 0002:000085b0       ??_C@_1M@BIKNHHPF@?$AAi?$AAs?$AA?9?$AAi?$AAs?$AA?$AA@ 100325b0     libucrt:lcidtoname_downlevel.obj
 0002:000085bc       ??_C@_1M@NMPCJPHE@?$AAi?$AAt?$AA?9?$AAc?$AAh?$AA?$AA@ 100325bc     libucrt:lcidtoname_downlevel.obj
 0002:000085c8       ??_C@_1M@GHKGFEDF@?$AAi?$AAt?$AA?9?$AAi?$AAt?$AA?$AA@ 100325c8     libucrt:lcidtoname_downlevel.obj
 0002:000085d4       ??_C@_1M@NIEJCJJA@?$AAj?$AAa?$AA?9?$AAj?$AAp?$AA?$AA@ 100325d4     libucrt:lcidtoname_downlevel.obj
 0002:000085e0       ??_C@_1M@JILFNBIM@?$AAk?$AAa?$AA?9?$AAg?$AAe?$AA?$AA@ 100325e0     libucrt:lcidtoname_downlevel.obj
 0002:000085ec       ??_C@_1M@PACPMGPH@?$AAk?$AAk?$AA?9?$AAk?$AAz?$AA?$AA@ 100325ec     libucrt:lcidtoname_downlevel.obj
 0002:000085f8       ??_C@_1M@IELFGMHA@?$AAk?$AAn?$AA?9?$AAi?$AAn?$AA?$AA@ 100325f8     libucrt:lcidtoname_downlevel.obj
 0002:00008604       ??_C@_1O@IBBJHCH@?$AAk?$AAo?$AAk?$AA?9?$AAi?$AAn?$AA?$AA@ 10032604     libucrt:lcidtoname_downlevel.obj
 0002:00008614       ??_C@_1M@DMHAEOGC@?$AAk?$AAo?$AA?9?$AAk?$AAr?$AA?$AA@ 10032614     libucrt:lcidtoname_downlevel.obj
 0002:00008620       ??_C@_1M@HBAHBIGA@?$AAk?$AAy?$AA?9?$AAk?$AAg?$AA?$AA@ 10032620     libucrt:lcidtoname_downlevel.obj
 0002:0000862c       ??_C@_1M@KPMILCJG@?$AAl?$AAt?$AA?9?$AAl?$AAt?$AA?$AA@ 1003262c     libucrt:lcidtoname_downlevel.obj
 0002:00008638       ??_C@_1M@BDEKKCA@?$AAl?$AAv?$AA?9?$AAl?$AAv?$AA?$AA@ 10032638     libucrt:lcidtoname_downlevel.obj
 0002:00008644       ??_C@_1M@ELCKCCJJ@?$AAm?$AAi?$AA?9?$AAn?$AAz?$AA?$AA@ 10032644     libucrt:lcidtoname_downlevel.obj
 0002:00008650       ??_C@_1M@CBOOLAPA@?$AAm?$AAk?$AA?9?$AAm?$AAk?$AA?$AA@ 10032650     libucrt:lcidtoname_downlevel.obj
 0002:0000865c       ??_C@_1M@GPHNBJKN@?$AAm?$AAl?$AA?9?$AAi?$AAn?$AA?$AA@ 1003265c     libucrt:lcidtoname_downlevel.obj
 0002:00008668       ??_C@_1M@PABJILIG@?$AAm?$AAn?$AA?9?$AAm?$AAn?$AA?$AA@ 10032668     libucrt:lcidtoname_downlevel.obj
 0002:00008674       ??_C@_1M@FGBKKIPG@?$AAm?$AAr?$AA?9?$AAi?$AAn?$AA?$AA@ 10032674     libucrt:lcidtoname_downlevel.obj
 0002:00008680       ??_C@_1M@NDBPDDAL@?$AAm?$AAs?$AA?9?$AAb?$AAn?$AA?$AA@ 10032680     libucrt:lcidtoname_downlevel.obj
 0002:0000868c       ??_C@_1M@OPIHOOPI@?$AAm?$AAs?$AA?9?$AAm?$AAy?$AA?$AA@ 1003268c     libucrt:lcidtoname_downlevel.obj
 0002:00008698       ??_C@_1M@PPDBCNFM@?$AAm?$AAt?$AA?9?$AAm?$AAt?$AA?$AA@ 10032698     libucrt:lcidtoname_downlevel.obj
 0002:000086a4       ??_C@_1M@KDJDKMDD@?$AAn?$AAb?$AA?9?$AAn?$AAo?$AA?$AA@ 100326a4     libucrt:lcidtoname_downlevel.obj
 0002:000086b0       ??_C@_1M@KFCFLMJP@?$AAn?$AAl?$AA?9?$AAb?$AAe?$AA?$AA@ 100326b0     libucrt:lcidtoname_downlevel.obj
 0002:000086bc       ??_C@_1M@KPOPDDGO@?$AAn?$AAl?$AA?9?$AAn?$AAl?$AA?$AA@ 100326bc     libucrt:lcidtoname_downlevel.obj
 0002:000086c8       ??_C@_1M@LJKPEMLN@?$AAn?$AAn?$AA?9?$AAn?$AAo?$AA?$AA@ 100326c8     libucrt:lcidtoname_downlevel.obj
 0002:000086d4       ??_C@_1M@BDGHHBFL@?$AAn?$AAs?$AA?9?$AAz?$AAa?$AA?$AA@ 100326d4     libucrt:lcidtoname_downlevel.obj
 0002:000086e0       ??_C@_1M@IDEHOAP@?$AAp?$AAa?$AA?9?$AAi?$AAn?$AA?$AA@ 100326e0     libucrt:lcidtoname_downlevel.obj
 0002:000086ec       ??_C@_1M@HDBKGOGH@?$AAp?$AAl?$AA?9?$AAp?$AAl?$AA?$AA@ 100326ec     libucrt:lcidtoname_downlevel.obj
 0002:000086f8       ??_C@_1M@LJLLCMEH@?$AAp?$AAt?$AA?9?$AAb?$AAr?$AA?$AA@ 100326f8     libucrt:lcidtoname_downlevel.obj
 0002:00008704       ??_C@_1M@NCMONAAL@?$AAp?$AAt?$AA?9?$AAp?$AAt?$AA?$AA@ 10032704     libucrt:lcidtoname_downlevel.obj
 0002:00008710       ??_C@_1O@EAKMAJDN@?$AAq?$AAu?$AAz?$AA?9?$AAb?$AAo?$AA?$AA@ 10032710     libucrt:lcidtoname_downlevel.obj
 0002:00008720       ??_C@_1O@BHHPIGDN@?$AAq?$AAu?$AAz?$AA?9?$AAe?$AAc?$AA?$AA@ 10032720     libucrt:lcidtoname_downlevel.obj
 0002:00008730       ??_C@_1O@GBAPEKMJ@?$AAq?$AAu?$AAz?$AA?9?$AAp?$AAe?$AA?$AA@ 10032730     libucrt:lcidtoname_downlevel.obj
 0002:00008740       ??_C@_1M@CLGLEFBO@?$AAr?$AAo?$AA?9?$AAr?$AAo?$AA?$AA@ 10032740     libucrt:lcidtoname_downlevel.obj
 0002:0000874c       ??_C@_1M@CEEDODME@?$AAr?$AAu?$AA?9?$AAr?$AAu?$AA?$AA@ 1003274c     libucrt:lcidtoname_downlevel.obj
 0002:00008758       ??_C@_1M@HPKKKMPP@?$AAs?$AAa?$AA?9?$AAi?$AAn?$AA?$AA@ 10032758     libucrt:lcidtoname_downlevel.obj
 0002:00008764       ??_C@_1M@BKMAIGOJ@?$AAs?$AAe?$AA?9?$AAf?$AAi?$AA?$AA@ 10032764     libucrt:lcidtoname_downlevel.obj
 0002:00008770       ??_C@_1M@NDPIFLFI@?$AAs?$AAe?$AA?9?$AAn?$AAo?$AA?$AA@ 10032770     libucrt:lcidtoname_downlevel.obj
 0002:0000877c       ??_C@_1M@DANKKHJ@?$AAs?$AAe?$AA?9?$AAs?$AAe?$AA?$AA@ 1003277c     libucrt:lcidtoname_downlevel.obj
 0002:00008788       ??_C@_1M@PNBLONPJ@?$AAs?$AAk?$AA?9?$AAs?$AAk?$AA?$AA@ 10032788     libucrt:lcidtoname_downlevel.obj
 0002:00008794       ??_C@_1M@LFMODOAL@?$AAs?$AAl?$AA?9?$AAs?$AAi?$AA?$AA@ 10032794     libucrt:lcidtoname_downlevel.obj
 0002:000087a0       ??_C@_1O@DFKOMPG@?$AAs?$AAm?$AAa?$AA?9?$AAn?$AAo?$AA?$AA@ 100327a0     libucrt:lcidtoname_downlevel.obj
 0002:000087b0       ??_C@_1O@NDKPBNNH@?$AAs?$AAm?$AAa?$AA?9?$AAs?$AAe?$AA?$AA@ 100327b0     libucrt:lcidtoname_downlevel.obj
 0002:000087c0       ??_C@_1O@PLLKBHAB@?$AAs?$AAm?$AAj?$AA?9?$AAn?$AAo?$AA?$AA@ 100327c0     libucrt:lcidtoname_downlevel.obj
 0002:000087d0       ??_C@_1O@CLEPOGCA@?$AAs?$AAm?$AAj?$AA?9?$AAs?$AAe?$AA?$AA@ 100327d0     libucrt:lcidtoname_downlevel.obj
 0002:000087e0       ??_C@_1O@DLGJGKMK@?$AAs?$AAm?$AAn?$AA?9?$AAf?$AAi?$AA?$AA@ 100327e0     libucrt:lcidtoname_downlevel.obj
 0002:000087f0       ??_C@_1O@OJDJGAJC@?$AAs?$AAm?$AAs?$AA?9?$AAf?$AAi?$AA?$AA@ 100327f0     libucrt:lcidtoname_downlevel.obj
 0002:00008800       ??_C@_1M@BOFOGHPB@?$AAs?$AAq?$AA?9?$AAa?$AAl?$AA?$AA@ 10032800     libucrt:lcidtoname_downlevel.obj
 0002:0000880c       ??_C@_1BG@LJBBIPGB@?$AAs?$AAr?$AA?9?$AAb?$AAa?$AA?9?$AAc?$AAy?$AAr?$AAl?$AA?$AA@ 1003280c     libucrt:lcidtoname_downlevel.obj
 0002:00008824       ??_C@_1BG@JLBENFOE@?$AAs?$AAr?$AA?9?$AAb?$AAa?$AA?9?$AAl?$AAa?$AAt?$AAn?$AA?$AA@ 10032824     libucrt:lcidtoname_downlevel.obj
 0002:0000883c       ??_C@_1BG@KODPNHE@?$AAs?$AAr?$AA?9?$AAs?$AAp?$AA?9?$AAc?$AAy?$AAr?$AAl?$AA?$AA@ 1003283c     libucrt:lcidtoname_downlevel.obj
 0002:00008854       ??_C@_1BG@CIOGKHPB@?$AAs?$AAr?$AA?9?$AAs?$AAp?$AA?9?$AAl?$AAa?$AAt?$AAn?$AA?$AA@ 10032854     libucrt:lcidtoname_downlevel.obj
 0002:0000886c       ??_C@_1M@NGFJLMAC@?$AAs?$AAv?$AA?9?$AAf?$AAi?$AA?$AA@ 1003286c     libucrt:lcidtoname_downlevel.obj
 0002:00008878       ??_C@_1M@MPJEJAJC@?$AAs?$AAv?$AA?9?$AAs?$AAe?$AA?$AA@ 10032878     libucrt:lcidtoname_downlevel.obj
 0002:00008884       ??_C@_1M@MPNDHLFK@?$AAs?$AAw?$AA?9?$AAk?$AAe?$AA?$AA@ 10032884     libucrt:lcidtoname_downlevel.obj
 0002:00008890       ??_C@_1O@KOHBJJI@?$AAs?$AAy?$AAr?$AA?9?$AAs?$AAy?$AA?$AA@ 10032890     libucrt:lcidtoname_downlevel.obj
 0002:000088a0       ??_C@_1M@LDCEFHA@?$AAt?$AAa?$AA?9?$AAi?$AAn?$AA?$AA@ 100328a0     libucrt:lcidtoname_downlevel.obj
 0002:000088ac       ??_C@_1M@CNJOFAK@?$AAt?$AAe?$AA?9?$AAi?$AAn?$AA?$AA@ 100328ac     libucrt:lcidtoname_downlevel.obj
 0002:000088b8       ??_C@_1M@GNAECACD@?$AAt?$AAh?$AA?9?$AAt?$AAh?$AA?$AA@ 100328b8     libucrt:lcidtoname_downlevel.obj
 0002:000088c4       ??_C@_1M@CHBIHOJO@?$AAt?$AAn?$AA?9?$AAz?$AAa?$AA?$AA@ 100328c4     libucrt:lcidtoname_downlevel.obj
 0002:000088d0       ??_C@_1M@GCCMIGPJ@?$AAt?$AAr?$AA?9?$AAt?$AAr?$AA?$AA@ 100328d0     libucrt:lcidtoname_downlevel.obj
 0002:000088dc       ??_C@_1M@CELMCNBK@?$AAt?$AAt?$AA?9?$AAr?$AAu?$AA?$AA@ 100328dc     libucrt:lcidtoname_downlevel.obj
 0002:000088e8       ??_C@_1M@KLMCELGA@?$AAu?$AAk?$AA?9?$AAu?$AAa?$AA?$AA@ 100328e8     libucrt:lcidtoname_downlevel.obj
 0002:000088f4       ??_C@_1M@EPAJJAJF@?$AAu?$AAr?$AA?9?$AAp?$AAk?$AA?$AA@ 100328f4     libucrt:lcidtoname_downlevel.obj
 0002:00008900       ??_C@_1BG@GEGPMCDJ@?$AAu?$AAz?$AA?9?$AAu?$AAz?$AA?9?$AAc?$AAy?$AAr?$AAl?$AA?$AA@ 10032900     libucrt:lcidtoname_downlevel.obj
 0002:00008918       ??_C@_1BG@EGGKJILM@?$AAu?$AAz?$AA?9?$AAu?$AAz?$AA?9?$AAl?$AAa?$AAt?$AAn?$AA?$AA@ 10032918     libucrt:lcidtoname_downlevel.obj
 0002:00008930       ??_C@_1M@GFOCLFF@?$AAv?$AAi?$AA?9?$AAv?$AAn?$AA?$AA@ 10032930     libucrt:lcidtoname_downlevel.obj
 0002:0000893c       ??_C@_1M@CPAMEDFI@?$AAx?$AAh?$AA?9?$AAz?$AAa?$AA?$AA@ 1003293c     libucrt:lcidtoname_downlevel.obj
 0002:00008948       ??_C@_1O@EBKIFIGN@?$AAz?$AAh?$AA?9?$AAc?$AAh?$AAs?$AA?$AA@ 10032948     libucrt:lcidtoname_downlevel.obj
 0002:00008958       ??_C@_1O@NMHPGANE@?$AAz?$AAh?$AA?9?$AAc?$AAh?$AAt?$AA?$AA@ 10032958     libucrt:lcidtoname_downlevel.obj
 0002:00008968       ??_C@_1M@LPINJOMC@?$AAz?$AAh?$AA?9?$AAc?$AAn?$AA?$AA@ 10032968     libucrt:lcidtoname_downlevel.obj
 0002:00008974       ??_C@_1M@OCJEJODD@?$AAz?$AAh?$AA?9?$AAh?$AAk?$AA?$AA@ 10032974     libucrt:lcidtoname_downlevel.obj
 0002:00008980       ??_C@_1M@DNDLJINH@?$AAz?$AAh?$AA?9?$AAm?$AAo?$AA?$AA@ 10032980     libucrt:lcidtoname_downlevel.obj
 0002:0000898c       ??_C@_1M@MBFDNDND@?$AAz?$AAh?$AA?9?$AAs?$AAg?$AA?$AA@ 1003298c     libucrt:lcidtoname_downlevel.obj
 0002:00008998       ??_C@_1M@IMEPLEPE@?$AAz?$AAh?$AA?9?$AAt?$AAw?$AA?$AA@ 10032998     libucrt:lcidtoname_downlevel.obj
 0002:000089a4       ??_C@_1M@BBGHNHJP@?$AAz?$AAu?$AA?9?$AAz?$AAa?$AA?$AA@ 100329a4     libucrt:lcidtoname_downlevel.obj
 0002:00008b10       __infinity                 10032b10     libucrt:87tran.obj
 0002:00008b1a       __minfinity                10032b1a     libucrt:87tran.obj
 0002:00008b24       __logemax                  10032b24     libucrt:87tran.obj
 0002:00008b4a       __OP_EXPjmptab             10032b4a     libucrt:87tran.obj
 0002:00008b70       __indefinite               10032b70     libucrt:87disp.obj
 0002:00008b7a       __piby2                    10032b7a     libucrt:87disp.obj
 0002:00008b84       __piby4                    10032b84     libucrt:87disp.obj
 0002:00008bb8       __DEFAULT_CW_in_mem        10032bb8     libucrt:common.obj
 0002:00008bba       __pi_by_2_to_61            10032bba     libucrt:common.obj
 0002:00008bf4       ??_C@_03MGHMBJCF@log?$AA@  10032bf4     libucrt:libm_error.obj
 0002:00008bf8       ??_C@_05HGHHAHAP@log10?$AA@ 10032bf8     libucrt:libm_error.obj
 0002:00008c00       ??_C@_03KHJOGHMM@exp?$AA@  10032c00     libucrt:libm_error.obj
 0002:00008c04       ??_C@_03JGHBODFD@pow?$AA@  10032c04     libucrt:libm_error.obj
 0002:00008c08       ??_C@_04FIHNOPOL@asin?$AA@ 10032c08     libucrt:libm_error.obj
 0002:00008c10       ??_C@_04PDIFKINK@acos?$AA@ 10032c10     libucrt:libm_error.obj
 0002:00008c18       ??_C@_04EIAKFFMI@sqrt?$AA@ 10032c18     libucrt:libm_error.obj
 0002:00008c20       __real@3ff0000000000000    10032c20     libucrt:libm_error.obj
 0002:00008c40       ___acrt_log10_table_t      10032c40     libucrt:log10_tables.obj
 0002:00009050       ___acrt_log10_table_cb     10033050     libucrt:log10_tables.obj
 0002:00009460       __real@3fe0000000000000    10033460     libucrt:powhlp.obj
 0002:00009468       ??_C@_04FJHINJAO@tanh?$AA@ 10033468     libucrt:fpexcept.obj
 0002:00009470       ??_C@_04MLLJIGOK@atan?$AA@ 10033470     libucrt:fpexcept.obj
 0002:00009478       ??_C@_05KNGEOGJB@atan2?$AA@ 10033478     libucrt:fpexcept.obj
 0002:00009480       ??_C@_03BLEJJJBH@sin?$AA@  10033480     libucrt:fpexcept.obj
 0002:00009484       ??_C@_03LALBNOCG@cos?$AA@  10033484     libucrt:fpexcept.obj
 0002:00009488       ??_C@_03IIINPABG@tan?$AA@  10033488     libucrt:fpexcept.obj
 0002:0000948c       ??_C@_04GFPJNGEK@ceil?$AA@ 1003348c     libucrt:fpexcept.obj
 0002:00009494       ??_C@_05PBJFFIGL@floor?$AA@ 10033494     libucrt:fpexcept.obj
 0002:0000949c       ??_C@_04ODHECPBC@fabs?$AA@ 1003349c     libucrt:fpexcept.obj
 0002:000094a4       ??_C@_04EHEDPDJG@modf?$AA@ 100334a4     libucrt:fpexcept.obj
 0002:000094ac       ??_C@_05CEJMAHNP@ldexp?$AA@ 100334ac     libucrt:fpexcept.obj
 0002:000094b4       ??_C@_05KBKMEMPO@_cabs?$AA@ 100334b4     libucrt:fpexcept.obj
 0002:000094bc       ??_C@_06MEIMCGCF@_hypot?$AA@ 100334bc     libucrt:fpexcept.obj
 0002:000094c4       ??_C@_04KEPJIHGP@fmod?$AA@ 100334c4     libucrt:fpexcept.obj
 0002:000094cc       ??_C@_05GKKHEGJL@frexp?$AA@ 100334cc     libucrt:fpexcept.obj
 0002:000094d4       ??_C@_03MJLDFKDL@_y0?$AA@  100334d4     libucrt:fpexcept.obj
 0002:000094d8       ??_C@_03NAKIGLHK@_y1?$AA@  100334d8     libucrt:fpexcept.obj
 0002:000094dc       ??_C@_03ONILCKOB@_yn?$AA@  100334dc     libucrt:fpexcept.obj
 0002:000094e0       ??_C@_05JGDBENOH@_logb?$AA@ 100334e0     libucrt:fpexcept.obj
 0002:000094e8       ??_C@_0L@KDOEJCKC@_nextafter?$AA@ 100334e8     libucrt:fpexcept.obj
 0002:000095e0       ??_C@_04COOMCNPB@sinh?$AA@ 100335e0     libucrt:fpexcept.obj
 0002:000095e8       ??_C@_04HPJJNFIM@cosh?$AA@ 100335e8     libucrt:fpexcept.obj
 0002:000095f0       __d_inf                    100335f0     libucrt:util.obj
 0002:000095f8       __d_max                    100335f8     libucrt:util.obj
 0002:00009600       __d_mzero                  10033600     libucrt:util.obj
 0002:00009608       ??_C@_1BA@BALFACEM@?$AAC?$AAO?$AAN?$AAO?$AAU?$AAT?$AA$?$AA?$AA@ 10033608     libucrt:initcon.obj
 0002:00009618       ??_C@_0BI@OEHNMHCG@GetCurrentConsoleFontEx?$AA@ 10033618     common-kernel32:WConsole.obj
 0002:00009630       ??_C@_0BI@PCBACGEE@SetCurrentConsoleFontEx?$AA@ 10033630     common-kernel32:WConsole.obj
 0002:000096a8       __load_config_used         100336a8     LIBCMT:loadcfg.obj
 0002:00009748       __tls_used                 10033748     LIBCMT:tlssup.obj
 0002:00009760       ??_R4CPluginW1900@@6B@     10033760     ConEmuPlugin1900.obj
 0002:00009774       ??_R3CPluginW1900@@8       10033774     ConEmuPlugin1900.obj
 0002:00009784       ??_R2CPluginW1900@@8       10033784     ConEmuPlugin1900.obj
 0002:00009790       ??_R1A@?0A@EA@CPluginW1900@@8 10033790     ConEmuPlugin1900.obj
 0002:000097ac       ??_R1A@?0A@EA@CPluginBase@@8 100337ac     ConEmuPlugin1900.obj
 0002:000097c8       ??_R3CPluginBase@@8        100337c8     ConEmuPlugin1900.obj
 0002:000097d8       ??_R2CPluginBase@@8        100337d8     ConEmuPlugin1900.obj
 0002:000097e0       ??_R4CPluginW2800@@6B@     100337e0     ConEmuPlugin2800.obj
 0002:000097f4       ??_R3CPluginW2800@@8       100337f4     ConEmuPlugin2800.obj
 0002:00009804       ??_R2CPluginW2800@@8       10033804     ConEmuPlugin2800.obj
 0002:00009810       ??_R1A@?0A@EA@CPluginW2800@@8 10033810     ConEmuPlugin2800.obj
 0002:0000982c       ??_R4CPluginW995@@6B@      1003382c     ConEmuPlugin995.obj
 0002:00009840       ??_R3CPluginW995@@8        10033840     ConEmuPlugin995.obj
 0002:00009850       ??_R2CPluginW995@@8        10033850     ConEmuPlugin995.obj
 0002:0000985c       ??_R1A@?0A@EA@CPluginW995@@8 1003385c     ConEmuPlugin995.obj
 0002:00009878       ??_R4CPluginAnsi@@6B@      10033878     ConEmuPluginA.obj
 0002:0000988c       ??_R3CPluginAnsi@@8        1003388c     ConEmuPluginA.obj
 0002:0000989c       ??_R2CPluginAnsi@@8        1003389c     ConEmuPluginA.obj
 0002:000098a8       ??_R1A@?0A@EA@CPluginAnsi@@8 100338a8     ConEmuPluginA.obj
 0002:000098c4       ??_R4CPluginBase@@6B@      100338c4     ConEmuPluginBase.obj
 0002:000098d8       ??_R4MToolHelpProcess@@6B@ 100338d8     common-kernel32:MProcess.obj
 0002:000098ec       ??_R3MToolHelpProcess@@8   100338ec     common-kernel32:MProcess.obj
 0002:000098fc       ??_R2MToolHelpProcess@@8   100338fc     common-kernel32:MProcess.obj
 0002:00009908       ??_R1A@?0A@EA@MToolHelpProcess@@8 10033908     common-kernel32:MProcess.obj
 0002:00009924       ??_R1A@?0A@EA@?$MToolHelp@UtagPROCESSENTRY32W@@$1?Process32FirstW@@YGHPAXPAU1@@Z$1?Process32NextW@@YGH01@Z@@8 10033924     common-kernel32:MProcess.obj
 0002:00009940       ??_R3?$MToolHelp@UtagPROCESSENTRY32W@@$1?Process32FirstW@@YGHPAXPAU1@@Z$1?Process32NextW@@YGH01@Z@@8 10033940     common-kernel32:MProcess.obj
 0002:00009950       ??_R2?$MToolHelp@UtagPROCESSENTRY32W@@$1?Process32FirstW@@YGHPAXPAU1@@Z$1?Process32NextW@@YGH01@Z@@8 10033950     common-kernel32:MProcess.obj
 0002:00009958       ??_R4?$MToolHelp@UtagPROCESSENTRY32W@@$1?Process32FirstW@@YGHPAXPAU1@@Z$1?Process32NextW@@YGH01@Z@@6B@ 10033958     common-kernel32:MProcess.obj
 0002:0000996c       ??_R4type_info@@6B@        1003396c     LIBCMT:std_type_info_static.obj
 0002:00009980       ??_R3type_info@@8          10033980     LIBCMT:std_type_info_static.obj
 0002:00009990       ??_R2type_info@@8          10033990     LIBCMT:std_type_info_static.obj
 0002:00009998       ??_R1A@?0A@EA@type_info@@8 10033998     LIBCMT:std_type_info_static.obj
 0002:000099b4       ??_R4exception@std@@6B@    100339b4     libvcruntime:frame.obj
 0002:000099c8       ??_R3exception@std@@8      100339c8     libvcruntime:frame.obj
 0002:000099d8       ??_R2exception@std@@8      100339d8     libvcruntime:frame.obj
 0002:000099e0       ??_R1A@?0A@EA@exception@std@@8 100339e0     libvcruntime:frame.obj
 0002:000099fc       ??_R4bad_exception@std@@6B@ 100339fc     libvcruntime:frame.obj
 0002:00009a10       ??_R3bad_exception@std@@8  10033a10     libvcruntime:frame.obj
 0002:00009a20       ??_R2bad_exception@std@@8  10033a20     libvcruntime:frame.obj
 0002:00009a2c       ??_R1A@?0A@EA@bad_exception@std@@8 10033a2c     libvcruntime:frame.obj
 0002:00009a50       ___safe_se_handler_table   10033a50     <linker-defined>
 0002:00009e7c       ___rtc_iaa                 10033e7c     LIBCMT:_initsect_.obj
 0002:00009e80       ___rtc_izz                 10033e80     LIBCMT:_initsect_.obj
 0002:00009e84       ___rtc_taa                 10033e84     LIBCMT:_initsect_.obj
 0002:00009e88       ___rtc_tzz                 10033e88     LIBCMT:_initsect_.obj
 0002:00009e8c       __tls_start                10033e8c     LIBCMT:tlssup.obj
 0002:00009e90       __Init_thread_epoch        10033e90     LIBCMT:thread_safe_statics.obj
 0002:00009e94       __tls_end                  10033e94     LIBCMT:tlssup.obj
 0002:0000a4bc       __TI2?AVbad_exception@std@@ 100344bc     libvcruntime:frame.obj
 0002:0000a4cc       __CTA2?AVbad_exception@std@@ 100344cc     libvcruntime:frame.obj
 0002:0000a4d8       __CT??_R0?AVbad_exception@std@@@8??0bad_exception@std@@QAE@ABV01@@Z12 100344d8     libvcruntime:frame.obj
 0002:0000a4f4       __CT??_R0?AVexception@std@@@8??0exception@std@@QAE@ABV01@@Z12 100344f4     libvcruntime:frame.obj
 0002:0000ab00       __IMPORT_DESCRIPTOR_VERSION 10034b00     version:VERSION.dll
 0002:0000ab14       __IMPORT_DESCRIPTOR_KERNEL32 10034b14     kernel32:KERNEL32.dll
 0002:0000ab28       __IMPORT_DESCRIPTOR_USER32 10034b28     user32:USER32.dll
 0002:0000ab3c       __IMPORT_DESCRIPTOR_GDI32  10034b3c     gdi32:GDI32.dll
 0002:0000ab50       __IMPORT_DESCRIPTOR_ADVAPI32 10034b50     advapi32:ADVAPI32.dll
 0002:0000ab64       __NULL_IMPORT_DESCRIPTOR   10034b64     version:VERSION.dll
 0003:00000000       ?Far3Func@@3PAUExportFunc@@A 10036000     ConEmuPlugin.obj
 0003:00000040       ?StdPalette@?1??GetStdPalette@Far3Color@@SAPBKXZ@4PAKA 10036040     ConEmuPlugin1900.obj
 0003:00000080       ?guid_ConEmu@@3U_GUID@@A   10036080     ConEmuPlugin2800.obj
 0003:00000090       ?guid_ConEmuPluginItems@@3U_GUID@@A 10036090     ConEmuPlugin2800.obj
 0003:000000a0       ?guid_ConEmuPluginMenu@@3U_GUID@@A 100360a0     ConEmuPlugin2800.obj
 0003:000000b0       ?guid_ConEmuGuiMacroDlg@@3U_GUID@@A 100360b0     ConEmuPlugin2800.obj
 0003:000000c0       ?guid_ConEmuWaitEndSynchro@@3U_GUID@@A 100360c0     ConEmuPlugin2800.obj
 0003:000000d0       ?guid_ConEmuMsg@@3U_GUID@@A 100360d0     ConEmuPlugin2800.obj
 0003:000000e0       ?guid_ConEmuInput@@3U_GUID@@A 100360e0     ConEmuPlugin2800.obj
 0003:000000f0       ?guid_ConEmuMenu@@3U_GUID@@A 100360f0     ConEmuPlugin2800.obj
 0003:00000128       ?gnPluginOpenFrom@@3HA     10036128     ConEmuPluginBase.obj
 0003:0000012c       ?gnReqCommand@@3KA         1003612c     ConEmuPluginBase.obj
 0003:00000130       ?lastModifiedStateW@@3HA   10036130     ConEmuPluginBase.obj
 0003:00000134       ?gFarMode@@3UHookModeFar@@A 10036134     ConEmuPluginBase.obj
 0003:00000160       ?gpPluginMenu@@3PAUPluginAndMenuCommands@@A 10036160     ConEmuPluginBase.obj
 0003:00000220       ?gsInternalCommands@@3PB_WB 10036220     common-kernel32:CmdLine.obj
 0003:00000224       ?g_TerminatedThreadIdx@@3JA 10036224     common-kernel32:WThreads.obj
 0003:00000228       ___security_cookie         10036228     LIBCMT:gs_cookie.obj
 0003:0000022c       ___security_cookie_complement 1003622c     LIBCMT:gs_cookie.obj
 0003:00000230       __Init_global_epoch        10036230     LIBCMT:thread_safe_statics.obj
 0003:00000240       ___scrt_native_dllmain_reason 10036240     LIBCMT:utility.obj
 0003:00000244       ___isa_enabled             10036244     LIBCMT:_cpu_disp_.obj
 0003:00000260       __NLG_Destination          10036260     libvcruntime:_exsup_.obj
 0003:00000270       ___abort_behavior          10036270     libucrt:abort.obj
 0003:00000280       __iob                      10036280     libucrt:_file.obj
 0003:00000328       ___acrt_initial_locale_data 10036328     libucrt:nlsdata.obj
 0003:000003e0       ___acrt_initial_locale_pointers 100363e0     libucrt:nlsdata.obj
 0003:000003e8       ___acrt_wide_c_locale_string 100363e8     libucrt:nlsdata.obj
 0003:000003ec       __pwctype                  100363ec     libucrt:ctype.obj
 0003:000004e8       __mbctype                  100364e8     libucrt:mbctype.obj
 0003:000005f0       __mbcasemap                100365f0     libucrt:mbctype.obj
 0003:000006f0       ___acrt_initial_multibyte_data 100366f0     libucrt:mbctype.obj
 0003:00000910       ___acrt_current_multibyte_data 10036910     libucrt:mbctype.obj
 0003:00000914       ___globallocalestatus      10036914     libucrt:glstatus.obj
 0003:00000918       ___acrt_lconv_static_decimal 10036918     libucrt:localeconv.obj
 0003:0000091c       ___acrt_lconv_static_W_decimal 1003691c     libucrt:localeconv.obj
 0003:00000920       ___acrt_lconv_c            10036920     libucrt:localeconv.obj
 0003:00000970       ___dcrt_lowio_console_output_handle 10036970     libucrt:initcon.obj
 0003:00000980       __fltused                  10036980     LIBCMT:fltused.obj
 0003:00000988       ??_R0?AVCPluginW1900@@@8   10036988     ConEmuPlugin1900.obj
 0003:000009a4       ??_R0?AVCPluginBase@@@8    100369a4     ConEmuPlugin1900.obj
 0003:000009c0       ??_R0?AVCPluginW2800@@@8   100369c0     ConEmuPlugin2800.obj
 0003:000009dc       ??_R0?AVCPluginW995@@@8    100369dc     ConEmuPlugin995.obj
 0003:000009f8       ??_R0?AVCPluginAnsi@@@8    100369f8     ConEmuPluginA.obj
 0003:00000a14       ??_R0?AVMToolHelpProcess@@@8 10036a14     common-kernel32:MProcess.obj
 0003:00000a38       ??_R0?AV?$MToolHelp@UtagPROCESSENTRY32W@@$1?Process32FirstW@@YGHPAXPAU1@@Z$1?Process32NextW@@YGH01@Z@@@8 10036a38     common-kernel32:MProcess.obj
 0003:00000aa4       ??_R0?AVtype_info@@@8      10036aa4     LIBCMT:std_type_info_static.obj
 0003:00000abc       ??_R0?AVbad_exception@std@@@8 10036abc     libvcruntime:frame.obj
 0003:00000adc       ??_R0?AVexception@std@@@8  10036adc     libvcruntime:frame.obj
 0003:00000af8       ?ghHooksModule@@3PAUHINSTANCE__@@A 10036af8     ConEmuInjects.obj
 0003:00000afc       ?gbHooksModuleLoaded@@3HA  10036afc     ConEmuInjects.obj
 0003:00000b00       ?SetHookCallbacks@@3P6G_NPBDPB_WPAUHINSTANCE__@@P6GHPAUHookCallbackArg@@@ZP6GX3@Z5@ZA 10036b00     ConEmuInjects.obj
 0003:00000b04       ?SetLoadLibraryCallback@@3P6GXPAUHINSTANCE__@@P6GX0@Z1@ZA 10036b04     ConEmuInjects.obj
 0003:00000b08       ?SetFarHookMode@@3P6GXPAUHookModeFar@@@ZA 10036b08     ConEmuInjects.obj
 0003:00000b0c       ?ghExtConModule@@3PAUHINSTANCE__@@A 10036b0c     ConEmuInjects.obj
 0003:00000b10       ?SetHookCallbacksExt@@3P6G_NPBDPB_WPAUHINSTANCE__@@P6GHPAUHookCallbackArg@@@ZP6GX3@Z5@ZA 10036b10     ConEmuInjects.obj
 0003:00000b18       ?_OptionsStorage@?1??__local_stdio_printf_options@@9@4_KA 10036b18     ConEmuInjects.obj
 0003:00000b20       ?InfoW1900@@3PAUPluginStartupInfo@@A 10036b20     ConEmuPlugin1900.obj
 0003:00000b24       ?FSFW1900@@3PAUFarStandardFunctions@@A 10036b24     ConEmuPlugin1900.obj
 0003:00000b28       ?LastColor@?1??Color2FgIndex@Far3Color@@SAXKAAGPBK@Z@4KA 10036b28     ConEmuPlugin1900.obj
 0003:00000b2c       ?LastIndex@?1??Color2FgIndex@Far3Color@@SAXKAAGPBK@Z@4HA 10036b2c     ConEmuPlugin1900.obj
 0003:00000b30       ?LastColor@?1??Color2BgIndex@Far3Color@@SAXKHAAGPBK@Z@4KA 10036b30     ConEmuPlugin1900.obj
 0003:00000b34       ?LastIndex@?1??Color2BgIndex@Far3Color@@SAXKHAAGPBK@Z@4HA 10036b34     ConEmuPlugin1900.obj
 0003:00000db8       ?InfoW2800@@3PAUPluginStartupInfo@@A 10036db8     ConEmuPlugin2800.obj
 0003:00000dbc       ?FSFW2800@@3PAUFarStandardFunctions@@A 10036dbc     ConEmuPlugin2800.obj
 0003:00001048       ?InfoW995@@3PAUPluginStartupInfo@@A 10037048     ConEmuPlugin995.obj
 0003:0000104c       ?FSFW995@@3PAUFarStandardFunctions@@A 1003704c     ConEmuPlugin995.obj
 0003:000012a0       ?InfoA@@3PAUPluginStartupInfo@@A 100372a0     ConEmuPluginA.obj
 0003:000012a4       ?FSFA@@3PAUFarStandardFunctions@@A 100372a4     ConEmuPluginA.obj
 0003:000015a0       ?ghPluginModule@@3PAUHINSTANCE__@@A 100375a0     ConEmuPluginBase.obj
 0003:000015a4       ?gnMainThreadId@@3KA       100375a4     ConEmuPluginBase.obj
 0003:000015a8       ?gszDir1@@3PA_WA           100375a8     ConEmuPluginBase.obj
 0003:00001da8       ?gszDir2@@3PA_WA           10037da8     ConEmuPluginBase.obj
 0003:000025a8       ?maxTabCount@@3HA          100385a8     ConEmuPluginBase.obj
 0003:000025ac       ?lastWindowCount@@3HA      100385ac     ConEmuPluginBase.obj
 0003:000025b0       ?gnCurTabCount@@3HA        100385b0     ConEmuPluginBase.obj
 0003:000025b4       ?gpCmdRet@@3PAUCESERVER_REQ@@A 100385b4     ConEmuPluginBase.obj
 0003:000025b8       ?ghConEmuWndDC@@3PAUHWND__@@A 100385b8     ConEmuPluginBase.obj
 0003:000025bc       ?FarHwnd@@3PAUHWND__@@A    100385bc     ConEmuPluginBase.obj
 0003:000025c0       ?gFarVersion@@3UFarVersion@@A 100385c0     ConEmuPluginBase.obj
 0003:000025cc       ?gpConMapInfo@@3PBUCESERVER_CONSOLE_MAPPING_HDR@@B 100385cc     ConEmuPluginBase.obj
 0003:000025d0       ?gbIgnoreUpdateTabs@@3HA   100385d0     ConEmuPluginBase.obj
 0003:000025d4       ?gpTabs@@3PAUCESERVER_REQ@@A 100385d4     ConEmuPluginBase.obj
 0003:000025d8       ?gbForceSendTabs@@3HA      100385d8     ConEmuPluginBase.obj
 0003:000025dc       ?gnCurrentWindowType@@3HA  100385dc     ConEmuPluginBase.obj
 0003:000025e0       ?gPanelRegLeft@@3UPanelViewRegInfo@@A 100385e0     ConEmuPluginBase.obj
 0003:000025f8       ?gPanelRegRight@@3UPanelViewRegInfo@@A 100385f8     ConEmuPluginBase.obj
 0003:00002610       ?gLastMouseReadEvent@@3U_MOUSE_EVENT_RECORD@@A 10038610     ConEmuPluginBase.obj
 0003:00002620       ?gnDummyMouseEventFromMacro@@3JA 10038620     ConEmuPluginBase.obj
 0003:00002624       ?gbUngetDummyMouseEvent@@3HA 10038624     ConEmuPluginBase.obj
 0003:00002628       ?gpPlugin@@3PAVCPluginBase@@A 10038628     ConEmuPluginBase.obj
 0003:0000262c       ?gnSynchroCount@@3HA       1003862c     ConEmuPluginBase.obj
 0003:00002630       ?gbWasDetached@@3HA        10038630     ConEmuPluginBase.obj
 0003:00002634       ?TerminalMode@@3HA         10038634     ConEmuPluginBase.obj
 0003:00002638       ?gbFarWndVisible@@3HA      10038638     ConEmuPluginBase.obj
 0003:0000263c       ?gsbiDetached@@3U_CONSOLE_SCREEN_BUFFER_INFO@@A 1003863c     ConEmuPluginBase.obj
 0003:00002652       ?gbExitFarCalled@@3_NA     10038652     ConEmuPluginBase.obj
 0003:00002653       ?gbSynchroProhibited@@3_NA 10038653     ConEmuPluginBase.obj
 0003:00002654       ?gnPeekReadCount@@3KA      10038654     ConEmuPluginBase.obj
 0003:00002658       ?gnInLongOperation@@3JA    10038658     ConEmuPluginBase.obj
 0003:0000265c       ?gdwPreDetachGuiPID@@3KA   1003865c     ConEmuPluginBase.obj
 0003:00002660       ?gdwServerPID@@3KA         10038660     ConEmuPluginBase.obj
 0003:00002664       ?gnMainThreadIdInitial@@3KA 10038664     ConEmuPluginBase.obj
 0003:00002668       ?ghMonitorThread@@3PAXA    10038668     ConEmuPluginBase.obj
 0003:0000266c       ?gnMonitorThreadId@@3KA    1003866c     ConEmuPluginBase.obj
 0003:00002670       ?ghSetWndSendTabsEvent@@3PAXA 10038670     ConEmuPluginBase.obj
 0003:00002674       ?gbRequestUpdateTabs@@3HA  10038674     ConEmuPluginBase.obj
 0003:00002678       ?gbClosingModalViewerEditor@@3HA 10038678     ConEmuPluginBase.obj
 0003:0000267c       ?gnAllowDummyMouseEvent@@3JA 1003867c     ConEmuPluginBase.obj
 0003:00002680       ?csData@@3PAVMSection@@A   10038680     ConEmuPluginBase.obj
 0003:00002684       ?gpData@@3PAEA             10038684     ConEmuPluginBase.obj
 0003:00002688       ?gpCursor@@3PAEA           10038688     ConEmuPluginBase.obj
 0003:0000268c       ?gnDataSize@@3KA           1003868c     ConEmuPluginBase.obj
 0003:00002690       ?gpReqCommandData@@3PAXA   10038690     ConEmuPluginBase.obj
 0003:00002694       ?ghReqCommandEvent@@3PAXA  10038694     ConEmuPluginBase.obj
 0003:00002698       ?gbReqCommandWaiting@@3HA  10038698     ConEmuPluginBase.obj
 0003:0000269c       ?gnMsgTabChanged@@3IA      1003869c     ConEmuPluginBase.obj
 0003:000026a0       ?csTabs@@3PAVMSection@@A   100386a0     ConEmuPluginBase.obj
 0003:000026a4       ?gbPlugKeyChanged@@3HA     100386a4     ConEmuPluginBase.obj
 0003:000026a8       ?ghRegMonitorKey@@3PAUHKEY__@@A 100386a8     ConEmuPluginBase.obj
 0003:000026ac       ?ghRegMonitorEvt@@3PAXA    100386ac     ConEmuPluginBase.obj
 0003:000026b0       ?ghPluginSemaphore@@3PAXA  100386b0     ConEmuPluginBase.obj
 0003:000026b4       ?gbNeedPostTabSend@@3HA    100386b4     ConEmuPluginBase.obj
 0003:000026b8       ?gsFarLang@@3PA_WA         100386b8     ConEmuPluginBase.obj
 0003:00002738       ?gbNeedPostEditCheck@@3HA  10038738     ConEmuPluginBase.obj
 0003:0000273c       ?gbNeedPostReloadFarInfo@@3HA 1003873c     ConEmuPluginBase.obj
 0003:00002740       ?gnNeedPostTabSendTick@@3KA 10038740     ConEmuPluginBase.obj
 0003:00002744       ?gpConMap@@3PAV?$MFileMapping@UCESERVER_CONSOLE_MAPPING_HDR@@@@A 10038744     ConEmuPluginBase.obj
 0003:00002748       ?gbStartedUnderConsole2@@3HA 10038748     ConEmuPluginBase.obj
 0003:0000274c       ?gnSelfPID@@3KA            1003874c     ConEmuPluginBase.obj
 0003:00002750       ?ghFarInfoMapping@@3PAXA   10038750     ConEmuPluginBase.obj
 0003:00002754       ?gpFarInfo@@3PAUCEFAR_INFO_MAPPING@@A 10038754     ConEmuPluginBase.obj
 0003:00002758       ?gpFarInfoMapping@@3PAUCEFAR_INFO_MAPPING@@A 10038758     ConEmuPluginBase.obj
 0003:0000275c       ?ghFarAliveEvent@@3PAXA    1003875c     ConEmuPluginBase.obj
 0003:00002760       ?ghConEmuCtrlPressed@@3PAXA 10038760     ConEmuPluginBase.obj
 0003:00002764       ?ghConEmuShiftPressed@@3PAXA 10038764     ConEmuPluginBase.obj
 0003:00002768       ?gbWaitConsoleInputEmpty@@3HA 10038768     ConEmuPluginBase.obj
 0003:0000276c       ?gbWaitConsoleWrite@@3HA   1003876c     ConEmuPluginBase.obj
 0003:00002770       ?ghConsoleInputEmpty@@3PAXA 10038770     ConEmuPluginBase.obj
 0003:00002774       ?ghConsoleWrite@@3PAXA     10038774     ConEmuPluginBase.obj
 0003:00002778       ?gbInputSynchroPending@@3_NA 10038778     ConEmuPluginBase.obj
 0003:00002779       ?gb_DllUniqueWarned@CPluginBase@@1_NA 10038779     ConEmuPluginBase.obj
 0003:0000277a       ?gb_DllUniqueChecked@CPluginBase@@1_NA 1003877a     ConEmuPluginBase.obj
 0003:0000277b       ?gb_ProtocolWarned@CPluginBase@@1_NA 1003877b     ConEmuPluginBase.obj
 0003:00002794       ?csbi@@3U_CONSOLE_SCREEN_BUFFER_INFO@@A 10038794     LogBrowser.obj
 0003:000027aa       ?gbShowAttrsOnly@@3_NA     100387aa     LogBrowser.obj
 0003:000027ac       ?gnPage@@3HA               100387ac     LogBrowser.obj
 0003:000027b0       ?gbBgPluginsAllowed@@3HA   100387b0     PluginBackground.obj
 0003:000027b4       ?gbNeedBgActivate@@3HA     100387b4     PluginBackground.obj
 0003:000027b8       ?gpBgPlugin@@3PAVCPluginBackground@@A 100387b8     PluginBackground.obj
 0003:000027c0       ?gszPluginServerPipe@@3PA_WA 100387c0     PluginSrv.obj
 0003:000029c8       ?gpPlugServer@@3PAU?$PipeServer@UCESERVER_REQ@@@@A 100389c8     PluginSrv.obj
 0003:000029cc       ?gbForcedServerTermination@@3_NA 100389cc     PluginSrv.obj
 0003:000029d0       ?ghServerTerminateEvent@@3PAXA 100389d0     PluginSrv.obj
 0003:000029d4       ?ghHeap@@3PAXA             100389d4     common-kernel32:Memory.obj
 0003:000029d8       ?g_LastDeletePtr@@3PAXA    100389d8     common-kernel32:Memory.obj
 0003:000029e0       ?gpLocalSecurity@@3PAU_SECURITY_ATTRIBUTES@@A 100389e0     common-kernel32:ConEmuCheck.obj
 0003:000029e4       ?gfGetRealConsoleWindow@@3P6GPAUHWND__@@XZA 100389e4     common-kernel32:ConEmuCheck.obj
 0003:000029e8       ?ghWorkingModule@@3_KA     100389e8     common-kernel32:ConEmuCheck.obj
 0003:00002a30       ?g_ThreadsIdx@@3JA         10038a30     common-kernel32:WThreads.obj
 0003:0000a238       ?gfnSearchAppPaths@@3P6A_NPB_WAAUCEStr@@_NPAU1@@ZA 10040238     common-kernel32:WObjects.obj
 0003:0000a244       ?gbInCommonShutdown@@3HA   10040244     common-kernel32:Common.obj
 0003:0000a24c       ?gNullDesc@@3PAVMNullDesc@@A 1004024c     common-kernel32:MSecurity.obj
 0003:0000a250       ?hkFunc@@3UHkFunc@@A       10040250     common-kernel32:HkFunc.obj
 0003:0000a27c       ?gsMapHelper@@3UConsoleSectionHelper@@A 1004027c     common-user32:WConsoleEx.obj
 0003:0000a284       __tls_index                10040284     LIBCMT:tlssup.obj
 0003:0000a2b4       ___scrt_current_native_startup_state 100402b4     LIBCMT:utility.obj
 0003:0000a2b8       ___scrt_native_startup_lock 100402b8     LIBCMT:utility.obj
 0003:0000a5f4       ___scrt_debugger_hook_flag 100405f4     LIBCMT:utility_desktop.obj
 0003:0000a5f8       ?__type_info_root_node@@3U__type_info_node@@A 100405f8     LIBCMT:tncleanup.obj
 0003:0000a600       ?_OptionsStorage@?1??__local_stdio_scanf_options@@9@4_KA 10040600     LIBCMT:default_local_stdio_options.obj
 0003:0000a608       ___isa_available           10040608     LIBCMT:_cpu_disp_.obj
 0003:0000a60c       ___favor                   1004060c     LIBCMT:_cpu_disp_.obj
 0003:0000a610       ?__WinRTOutOfMemoryExceptionCallback@@3P6GPAXXZA 10040610     libvcruntime:ehhelpers.obj
 0003:0000a65c       ___pPurecall               1004065c     libvcruntime:purevirt_data.obj
 0003:0000a67c       ?pArgList@UnDecorator@@0PAVReplicator@@A 1004067c     libvcruntime:undname.obj
 0003:0000a680       ?pZNameList@UnDecorator@@0PAVReplicator@@A 10040680     libvcruntime:undname.obj
 0003:0000a684       ?pTemplateArgList@UnDecorator@@0PAVReplicator@@A 10040684     libvcruntime:undname.obj
 0003:0000a688       ?gName@UnDecorator@@0PBDB  10040688     libvcruntime:undname.obj
 0003:0000a68c       ?name@UnDecorator@@0PBDB   1004068c     libvcruntime:undname.obj
 0003:0000a690       ?outputString@UnDecorator@@0PADA 10040690     libvcruntime:undname.obj
 0003:0000a694       ?maxStringLength@UnDecorator@@0HA 10040694     libvcruntime:undname.obj
 0003:0000a698       ?disableFlags@UnDecorator@@0KA 10040698     libvcruntime:undname.obj
 0003:0000a69c       ?fExplicitTemplateParams@UnDecorator@@0_NA 1004069c     libvcruntime:undname.obj
 0003:0000a69d       ?fGetTemplateArgumentList@UnDecorator@@0_NA 1004069d     libvcruntime:undname.obj
 0003:0000a6a0       ?m_pGetParameter@UnDecorator@@0P6APADJ@ZA 100406a0     libvcruntime:undname.obj
 0003:0000a7d0       __environ_table            100407d0     libucrt:environment_initialization.obj
 0003:0000a7d4       __wenviron_table           100407d4     libucrt:environment_initialization.obj
 0003:0000a7d8       ___dcrt_initial_wide_environment 100407d8     libucrt:environment_initialization.obj
 0003:0000a7dc       ___dcrt_initial_narrow_environment 100407dc     libucrt:environment_initialization.obj
 0003:0000a7e0       ___acrt_atexit_table       100407e0     libucrt:onexit.obj
 0003:0000a7ec       ___acrt_at_quick_exit_table 100407ec     libucrt:onexit.obj
 0003:0000a7fc       __nstream                  100407fc     libucrt:_file.obj
 0003:0000a800       ___piob                    10040800     libucrt:_file.obj
 0003:0000a808       ___acrt_stdout_buffer      10040808     libucrt:_sftbuf.obj
 0003:0000a80c       ___acrt_stderr_buffer      1004080c     libucrt:_sftbuf.obj
 0003:0000a810       ___acrt_locale_changed_data 10040810     libucrt:wsetlocale.obj
 0003:0000a814       ___acrt_current_locale_data 10040814     libucrt:nlsdata.obj
 0003:0000a818       ___pioinfo                 10040818     libucrt:ioinit.obj
 0003:0000aa18       __nhandle                  10040a18     libucrt:ioinit.obj
 0003:0000ac34       ___mblocalename            10040c34     libucrt:mbctype.obj
 0003:0000ac38       ___mbcodepage              10040c38     libucrt:mbctype.obj
 0003:0000ac3c       ___ismbcodepage            10040c3c     libucrt:mbctype.obj
 0003:0000ac40       ___mbulinfo                10040c40     libucrt:mbctype.obj
 0003:0000ac54       ___argc                    10040c54     libucrt:argv_data.obj
 0003:0000ac58       ___argv                    10040c58     libucrt:argv_data.obj
 0003:0000ac5c       ___wargv                   10040c5c     libucrt:argv_data.obj
 0003:0000ac60       __acmdln                   10040c60     libucrt:argv_data.obj
 0003:0000ac64       __wcmdln                   10040c64     libucrt:argv_data.obj
 0003:0000ac68       __pgmptr                   10040c68     libucrt:argv_data.obj
 0003:0000ac6c       ___acrt_heap               10040c6c     libucrt:heap_handle.obj
 0003:0000ac8c       ___acrt_lconv_static_null  10040c8c     libucrt:localeconv.obj
 0003:0000ac90       ___acrt_lconv_static_W_null 10040c90     libucrt:localeconv.obj
 0003:0000ac98       ___fastflag                10040c98     libucrt:fp_flags.obj
 0003:0000aca0       ?g_LastSetConsoleFont@@3UMY_CONSOLE_FONT_INFOEX@@A 10040ca0     common-kernel32:WConsole.obj
 0003:0000ad08       ___scrt_ucrt_dll_is_in_use 10040d08     <common>
 0003:0000ad0c       ___dyn_tls_init_callback   10040d0c     <common>
 0003:0000ad10       __pmatherr                 10040d10     <common>
 0003:0000ad14       ___use_sse2_mathfcns       10040d14     <common>

 entry point at        0001:00016d5c

 Static symbols

 0000:fffbb000       .debug$S                   10000000     kernel32:KERNEL32.dll
 0000:fffbb000       .debug$S                   10000000     user32:USER32.dll
 0000:fffbb000       .debug$S                   10000000     user32:USER32.dll
 0000:fffbb000       .debug$S                   10000000     ConEmu.exp
 0000:fffbb000       .debug$S                   10000000     user32:USER32.dll
 0000:fffbb000       .debug$S                   10000000     kernel32:KERNEL32.dll
 0000:fffbb000       .debug$S                   10000000     kernel32:KERNEL32.dll
 0000:fffbb000       .debug$S                   10000000     kernel32:KERNEL32.dll
 0000:fffbb000       .debug$S                   10000000     kernel32:KERNEL32.dll
 0000:fffbb000       .debug$S                   10000000     kernel32:KERNEL32.dll
 0000:fffbb000       .debug$S                   10000000     kernel32:KERNEL32.dll
 0000:fffbb000       .debug$S                   10000000     kernel32:KERNEL32.dll
 0000:fffbb000       .debug$S                   10000000     kernel32:KERNEL32.dll
 0000:fffbb000       .debug$S                   10000000     kernel32:KERNEL32.dll
 0000:fffbb000       .debug$S                   10000000     kernel32:KERNEL32.dll
 0000:fffbb000       .debug$S                   10000000     kernel32:KERNEL32.dll
 0000:fffbb000       .debug$S                   10000000     kernel32:KERNEL32.dll
 0000:fffbb000       .debug$S                   10000000     kernel32:KERNEL32.dll
 0000:fffbb000       .debug$S                   10000000     kernel32:KERNEL32.dll
 0000:fffbb000       .debug$S                   10000000     kernel32:KERNEL32.dll
 0000:fffbb000       .debug$S                   10000000     kernel32:KERNEL32.dll
 0000:fffbb000       .debug$S                   10000000     kernel32:KERNEL32.dll
 0000:fffbb000       .debug$S                   10000000     kernel32:KERNEL32.dll
 0000:fffbb000       .debug$S                   10000000     kernel32:KERNEL32.dll
 0000:fffbb000       .debug$S                   10000000     kernel32:KERNEL32.dll
 0000:fffbb000       .debug$S                   10000000     kernel32:KERNEL32.dll
 0000:fffbb000       .debug$S                   10000000     kernel32:KERNEL32.dll
 0000:fffbb000       .debug$S                   10000000     kernel32:KERNEL32.dll
 0000:fffbb000       .debug$S                   10000000     kernel32:KERNEL32.dll
 0000:fffbb000       .debug$S                   10000000     kernel32:KERNEL32.dll
 0000:fffbb000       .debug$S                   10000000     kernel32:KERNEL32.dll
 0000:fffbb000       .debug$S                   10000000     kernel32:KERNEL32.dll
 0000:fffbb000       .debug$S                   10000000     kernel32:KERNEL32.dll
 0000:fffbb000       .debug$S                   10000000     kernel32:KERNEL32.dll
 0000:fffbb000       .debug$S                   10000000     kernel32:KERNEL32.dll
 0000:fffbb000       .debug$S                   10000000     kernel32:KERNEL32.dll
 0000:fffbb000       .debug$S                   10000000     kernel32:KERNEL32.dll
 0000:fffbb000       .debug$S                   10000000     kernel32:KERNEL32.dll
 0000:fffbb000       .debug$S                   10000000     kernel32:KERNEL32.dll
 0000:fffbb000       .debug$S                   10000000     kernel32:KERNEL32.dll
 0000:fffbb000       .debug$S                   10000000     kernel32:KERNEL32.dll
 0000:fffbb000       .debug$S                   10000000     kernel32:KERNEL32.dll
 0000:fffbb000       .debug$S                   10000000     kernel32:KERNEL32.dll
 0000:fffbb000       .debug$S                   10000000     kernel32:KERNEL32.dll
 0000:fffbb000       .debug$S                   10000000     kernel32:KERNEL32.dll
 0000:fffbb000       .debug$S                   10000000     kernel32:KERNEL32.dll
 0000:fffbb000       .debug$S                   10000000     kernel32:KERNEL32.dll
 0000:fffbb000       .debug$S                   10000000     kernel32:KERNEL32.dll
 0000:fffbb000       .debug$S                   10000000     kernel32:KERNEL32.dll
 0000:fffbb000       .debug$S                   10000000     kernel32:KERNEL32.dll
 0000:fffbb000       .debug$S                   10000000     kernel32:KERNEL32.dll
 0000:fffbb000       .debug$S                   10000000     kernel32:KERNEL32.dll
 0000:fffbb000       .debug$S                   10000000     kernel32:KERNEL32.dll
 0000:fffbb000       .debug$S                   10000000     kernel32:KERNEL32.dll
 0000:fffbb000       .debug$S                   10000000     kernel32:KERNEL32.dll
 0000:fffbb000       .debug$S                   10000000     kernel32:KERNEL32.dll
 0000:fffbb000       .debug$S                   10000000     kernel32:KERNEL32.dll
 0000:fffbb000       .debug$S                   10000000     kernel32:KERNEL32.dll
 0000:fffbb000       .debug$S                   10000000     kernel32:KERNEL32.dll
 0000:fffbb000       .debug$S                   10000000     kernel32:KERNEL32.dll
 0000:fffbb000       .debug$S                   10000000     kernel32:KERNEL32.dll
 0000:fffbb000       .debug$S                   10000000     kernel32:KERNEL32.dll
 0000:fffbb000       .debug$S                   10000000     kernel32:KERNEL32.dll
 0000:fffbb000       .debug$S                   10000000     kernel32:KERNEL32.dll
 0000:fffbb000       .debug$S                   10000000     kernel32:KERNEL32.dll
 0000:fffbb000       .debug$S                   10000000     kernel32:KERNEL32.dll
 0000:fffbb000       .debug$S                   10000000     kernel32:KERNEL32.dll
 0000:fffbb000       .debug$S                   10000000     kernel32:KERNEL32.dll
 0000:fffbb000       .debug$S                   10000000     kernel32:KERNEL32.dll
 0000:fffbb000       .debug$S                   10000000     kernel32:KERNEL32.dll
 0000:fffbb000       .debug$S                   10000000     kernel32:KERNEL32.dll
 0000:fffbb000       .debug$S                   10000000     kernel32:KERNEL32.dll
 0000:fffbb000       .debug$S                   10000000     kernel32:KERNEL32.dll
 0000:fffbb000       .debug$S                   10000000     kernel32:KERNEL32.dll
 0000:fffbb000       .debug$S                   10000000     kernel32:KERNEL32.dll
 0000:fffbb000       .debug$S                   10000000     kernel32:KERNEL32.dll
 0000:fffbb000       .debug$S                   10000000     kernel32:KERNEL32.dll
 0000:fffbb000       .debug$S                   10000000     kernel32:KERNEL32.dll
 0000:fffbb000       .debug$S                   10000000     kernel32:KERNEL32.dll
 0000:fffbb000       .debug$S                   10000000     kernel32:KERNEL32.dll
 0000:fffbb000       .debug$S                   10000000     kernel32:KERNEL32.dll
 0000:fffbb000       .debug$S                   10000000     kernel32:KERNEL32.dll
 0000:fffbb000       .debug$S                   10000000     kernel32:KERNEL32.dll
 0000:fffbb000       .debug$S                   10000000     kernel32:KERNEL32.dll
 0000:fffbb000       .debug$S                   10000000     kernel32:KERNEL32.dll
 0000:fffbb000       .debug$S                   10000000     kernel32:KERNEL32.dll
 0000:fffbb000       .debug$S                   10000000     kernel32:KERNEL32.dll
 0000:fffbb000       .debug$S                   10000000     kernel32:KERNEL32.dll
 0000:fffbb000       .debug$S                   10000000     kernel32:KERNEL32.dll
 0000:fffbb000       .debug$S                   10000000     kernel32:KERNEL32.dll
 0000:fffbb000       .debug$S                   10000000     kernel32:KERNEL32.dll
 0000:fffbb000       .debug$S                   10000000     kernel32:KERNEL32.dll
 0000:fffbb000       .debug$S                   10000000     kernel32:KERNEL32.dll
 0000:fffbb000       .debug$S                   10000000     kernel32:KERNEL32.dll
 0000:fffbb000       .debug$S                   10000000     kernel32:KERNEL32.dll
 0000:fffbb000       .debug$S                   10000000     kernel32:KERNEL32.dll
 0000:fffbb000       .debug$S                   10000000     kernel32:KERNEL32.dll
 0000:fffbb000       .debug$S                   10000000     kernel32:KERNEL32.dll
 0000:fffbb000       .debug$S                   10000000     kernel32:KERNEL32.dll
 0000:fffbb000       .debug$S                   10000000     kernel32:KERNEL32.dll
 0000:fffbb000       .debug$S                   10000000     kernel32:KERNEL32.dll
 0000:fffbb000       .debug$S                   10000000     kernel32:KERNEL32.dll
 0000:fffbb000       .debug$S                   10000000     kernel32:KERNEL32.dll
 0000:fffbb000       .debug$S                   10000000     kernel32:KERNEL32.dll
 0000:fffbb000       .debug$S                   10000000     kernel32:KERNEL32.dll
 0000:fffbb000       .debug$S                   10000000     kernel32:KERNEL32.dll
 0000:fffbb000       .debug$S                   10000000     kernel32:KERNEL32.dll
 0000:fffbb000       .debug$S                   10000000     kernel32:KERNEL32.dll
 0000:fffbb000       .debug$S                   10000000     kernel32:KERNEL32.dll
 0000:fffbb000       .debug$S                   10000000     kernel32:KERNEL32.dll
 0000:fffbb000       .debug$S                   10000000     kernel32:KERNEL32.dll
 0000:fffbb000       .debug$S                   10000000     kernel32:KERNEL32.dll
 0000:fffbb000       .debug$S                   10000000     kernel32:KERNEL32.dll
 0000:fffbb000       .debug$S                   10000000     kernel32:KERNEL32.dll
 0000:fffbb000       .debug$S                   10000000     kernel32:KERNEL32.dll
 0000:fffbb000       .debug$S                   10000000     shell32:SHELL32.dll
 0002:fffd6000       .idata$6                   10000000     shell32:SHELL32.dll
 0000:fffbb000       .debug$S                   10000000     advapi32:ADVAPI32.dll
 0000:fffbb000       .debug$S                   10000000     advapi32:ADVAPI32.dll
 0000:fffbb000       .debug$S                   10000000     advapi32:ADVAPI32.dll
 0000:fffbb000       .debug$S                   10000000     advapi32:ADVAPI32.dll
 0000:fffbb000       .debug$S                   10000000     advapi32:ADVAPI32.dll
 0000:fffbb000       .debug$S                   10000000     advapi32:ADVAPI32.dll
 0000:fffbb000       .debug$S                   10000000     advapi32:ADVAPI32.dll
 0000:fffbb000       .debug$S                   10000000     advapi32:ADVAPI32.dll
 0000:fffbb000       .debug$S                   10000000     advapi32:ADVAPI32.dll
 0000:fffbb000       .debug$S                   10000000     advapi32:ADVAPI32.dll
 0000:fffbb000       .debug$S                   10000000     advapi32:ADVAPI32.dll
 0000:fffbb000       .debug$S                   10000000     gdi32:GDI32.dll
 0000:fffbb000       .debug$S                   10000000     gdi32:GDI32.dll
 0000:fffbb000       .debug$S                   10000000     gdi32:GDI32.dll
 0000:fffbb000       .debug$S                   10000000     gdi32:GDI32.dll
 0000:fffbb000       .debug$S                   10000000     gdi32:GDI32.dll
 0000:fffbb000       .debug$S                   10000000     gdi32:GDI32.dll
 0000:fffbb000       .debug$S                   10000000     gdi32:GDI32.dll
 0000:fffbb000       .debug$S                   10000000     gdi32:GDI32.dll
 0000:fffbb000       .debug$S                   10000000     gdi32:GDI32.dll
 0000:fffbb000       .debug$S                   10000000     kernel32:KERNEL32.dll
 0000:fffbb000       .debug$S                   10000000     kernel32:KERNEL32.dll
 0000:fffbb000       .debug$S                   10000000     gdi32:GDI32.dll
 0000:fffbb000       .debug$S                   10000000     gdi32:GDI32.dll
 0000:fffbb000       .debug$S                   10000000     gdi32:GDI32.dll
 0000:fffbb000       .debug$S                   10000000     gdi32:GDI32.dll
 0000:fffbb000       .debug$S                   10000000     user32:USER32.dll
 0000:fffbb000       .debug$S                   10000000     user32:USER32.dll
 0000:fffbb000       .debug$S                   10000000     user32:USER32.dll
 0000:fffbb000       .debug$S                   10000000     kernel32:KERNEL32.dll
 0000:fffbb000       .debug$S                   10000000     kernel32:KERNEL32.dll
 0000:fffbb000       .debug$S                   10000000     user32:USER32.dll
 0000:fffbb000       .debug$S                   10000000     user32:USER32.dll
 0000:fffbb000       .debug$S                   10000000     kernel32:KERNEL32.dll
 0000:fffbb000       .debug$S                   10000000     kernel32:KERNEL32.dll
 0000:fffbb000       .debug$S                   10000000     user32:USER32.dll
 0000:fffbb000       .debug$S                   10000000     user32:USER32.dll
 0000:fffbb000       .debug$S                   10000000     user32:USER32.dll
 0000:fffbb000       .debug$S                   10000000     user32:USER32.dll
 0000:fffbb000       .debug$S                   10000000     user32:USER32.dll
 0000:fffbb000       .debug$S                   10000000     user32:USER32.dll
 0000:fffbb000       .debug$S                   10000000     kernel32:KERNEL32.dll
 0000:fffbb000       .debug$S                   10000000     kernel32:KERNEL32.dll
 0000:fffbb000       .debug$S                   10000000     kernel32:KERNEL32.dll
 0000:fffbb000       .debug$S                   10000000     kernel32:KERNEL32.dll
 0000:fffbb000       .debug$S                   10000000     kernel32:KERNEL32.dll
 0000:fffbb000       .debug$S                   10000000     kernel32:KERNEL32.dll
 0000:fffbb000       .debug$S                   10000000     kernel32:KERNEL32.dll
 0000:fffbb000       .debug$S                   10000000     kernel32:KERNEL32.dll
 0000:fffbb000       .debug$S                   10000000     user32:USER32.dll
 0000:fffbb000       .debug$S                   10000000     user32:USER32.dll
 0000:fffbb000       .debug$S                   10000000     user32:USER32.dll
 0000:fffbb000       .debug$S                   10000000     user32:USER32.dll
 0000:fffbb000       .debug$S                   10000000     user32:USER32.dll
 0000:fffbb000       .debug$S                   10000000     user32:USER32.dll
 0000:fffbb000       .debug$S                   10000000     user32:USER32.dll
 0000:fffbb000       .debug$S                   10000000     user32:USER32.dll
 0000:fffbb000       .debug$S                   10000000     user32:USER32.dll
 0000:fffbb000       .debug$S                   10000000     user32:USER32.dll
 0000:fffbb000       .debug$S                   10000000     user32:USER32.dll
 0000:fffbb000       .debug$S                   10000000     user32:USER32.dll
 0000:fffbb000       .debug$S                   10000000     user32:USER32.dll
 0000:fffbb000       .debug$S                   10000000     user32:USER32.dll
 0000:fffbb000       .debug$S                   10000000     user32:USER32.dll
 0000:fffbb000       .debug$S                   10000000     user32:USER32.dll
 0000:fffbb000       .debug$S                   10000000     user32:USER32.dll
 0000:fffbb000       .debug$S                   10000000     kernel32:KERNEL32.dll
 0000:fffbb000       .debug$S                   10000000     kernel32:KERNEL32.dll
 0000:fffbb000       .debug$S                   10000000     kernel32:KERNEL32.dll
 0000:fffbb000       .debug$S                   10000000     kernel32:KERNEL32.dll
 0000:fffbb000       .debug$S                   10000000     kernel32:KERNEL32.dll
 0000:fffbb000       .debug$S                   10000000     user32:USER32.dll
 0000:fffbb000       .debug$S                   10000000     user32:USER32.dll
 0000:fffbb000       .debug$S                   10000000     user32:USER32.dll
 0000:fffbb000       .debug$S                   10000000     user32:USER32.dll
 0000:fffbb000       .debug$S                   10000000     kernel32:KERNEL32.dll
 0000:fffbb000       .debug$S                   10000000     user32:USER32.dll
 0000:fffbb000       .debug$S                   10000000     user32:USER32.dll
 0000:fffbb000       .debug$S                   10000000     user32:USER32.dll
 0000:fffbb000       .debug$S                   10000000     user32:USER32.dll
 0000:fffbb000       .debug$S                   10000000     version:VERSION.dll
 0000:fffbb000       .debug$S                   10000000     version:VERSION.dll
 0000:fffbb000       .debug$S                   10000000     version:VERSION.dll
 0000:fffbb000       .debug$S                   10000000     user32:USER32.dll
 0000:fffbb000       .debug$S                   10000000     kernel32:KERNEL32.dll
 0000:fffbb000       .debug$S                   10000000     kernel32:KERNEL32.dll
 0000:fffbb000       .debug$S                   10000000     kernel32:KERNEL32.dll
 0000:fffbb000       .debug$S                   10000000     kernel32:KERNEL32.dll
 0000:fffbb000       .debug$S                   10000000     kernel32:KERNEL32.dll
 0000:fffbb000       .debug$S                   10000000     kernel32:KERNEL32.dll
 0000:fffbb000       .debug$S                   10000000     kernel32:KERNEL32.dll
 0000:fffbb000       .debug$S                   10000000     kernel32:KERNEL32.dll
 0000:fffbb000       .debug$S                   10000000     kernel32:KERNEL32.dll
 0000:fffbb000       .debug$S                   10000000     kernel32:KERNEL32.dll
 0000:fffbb000       .debug$S                   10000000     kernel32:KERNEL32.dll
 0000:fffbb000       .debug$S                   10000000     kernel32:KERNEL32.dll
 0000:fffbb000       .debug$S                   10000000     kernel32:KERNEL32.dll
 0000:fffbb000       .debug$S                   10000000     kernel32:KERNEL32.dll
 0000:fffbb000       .debug$S                   10000000     kernel32:KERNEL32.dll
 0000:fffbb000       .debug$S                   10000000     kernel32:KERNEL32.dll
 0000:fffbb000       .debug$S                   10000000     kernel32:KERNEL32.dll
 0000:fffbb000       .debug$S                   10000000     kernel32:KERNEL32.dll
 0000:fffbb000       .debug$S                   10000000     kernel32:KERNEL32.dll
 0000:fffbb000       .debug$S                   10000000     kernel32:KERNEL32.dll
 0000:fffbb000       .debug$S                   10000000     kernel32:KERNEL32.dll
 0000:fffbb000       .debug$S                   10000000     kernel32:KERNEL32.dll
 0000:fffbb000       .debug$S                   10000000     kernel32:KERNEL32.dll
 0000:fffbb000       .debug$S                   10000000     kernel32:KERNEL32.dll
 0000:fffbb000       .debug$S                   10000000     kernel32:KERNEL32.dll
 0000:fffbb000       .debug$S                   10000000     kernel32:KERNEL32.dll
 0000:fffbb000       .debug$S                   10000000     kernel32:KERNEL32.dll
 0000:fffbb000       .debug$S                   10000000     kernel32:KERNEL32.dll
 0000:fffbb000       .debug$S                   10000000     kernel32:KERNEL32.dll
 0000:fffbb000       .debug$S                   10000000     kernel32:KERNEL32.dll
 0000:fffbb000       .debug$S                   10000000     kernel32:KERNEL32.dll
 0000:fffbb000       .debug$S                   10000000     kernel32:KERNEL32.dll
 0000:fffbb000       .debug$S                   10000000     kernel32:KERNEL32.dll
 0000:fffbb000       .debug$S                   10000000     kernel32:KERNEL32.dll
 0000:fffbb000       .debug$S                   10000000     kernel32:KERNEL32.dll
 0000:fffbb000       .debug$S                   10000000     kernel32:KERNEL32.dll
 0000:fffbb000       .debug$S                   10000000     kernel32:KERNEL32.dll
 0000:fffbb000       .debug$S                   10000000     kernel32:KERNEL32.dll
 0000:fffbb000       .debug$S                   10000000     kernel32:KERNEL32.dll
 0000:fffbb000       .debug$S                   10000000     kernel32:KERNEL32.dll
 0000:fffbb000       .debug$S                   10000000     kernel32:KERNEL32.dll
 0000:fffbb000       .debug$S                   10000000     kernel32:KERNEL32.dll
 0000:fffbb000       .debug$S                   10000000     kernel32:KERNEL32.dll
 0000:fffbb000       .debug$S                   10000000     kernel32:KERNEL32.dll
 0000:fffbb000       .debug$S                   10000000     kernel32:KERNEL32.dll
 0000:fffbb000       .debug$S                   10000000     kernel32:KERNEL32.dll
 0000:fffbb000       .debug$S                   10000000     kernel32:KERNEL32.dll
 0000:fffbb000       .debug$S                   10000000     kernel32:KERNEL32.dll
 0000:fffbb000       .debug$S                   10000000     kernel32:KERNEL32.dll
 0000:fffbb000       .debug$S                   10000000     kernel32:KERNEL32.dll
 0000:fffbb000       .debug$S                   10000000     kernel32:KERNEL32.dll
 0000:fffbb000       .debug$S                   10000000     kernel32:KERNEL32.dll
 0000:fffbb000       .debug$S                   10000000     kernel32:KERNEL32.dll
 0000:fffbb000       .debug$S                   10000000     kernel32:KERNEL32.dll
 0000:fffbb000       .debug$S                   10000000     kernel32:KERNEL32.dll
 0000:fffbb000       .debug$S                   10000000     kernel32:KERNEL32.dll
 0000:fffbb000       .debug$S                   10000000     user32:USER32.dll
 0001:00000000       ??__EgsMapHelper@@YAXXZ    10001000 f   common-user32:WConsoleEx.obj
 0001:00000745       ?ChangeExports@@YA_NPBUExportFunc@@PAUHINSTANCE__@@@Z 10001745 f   ConEmuPlugin.obj
 0001:00000ec1       ?CallGuiMacroDlg@@YGHPAXHH0@Z 10001ec1 f   ConEmuPlugin1900.obj
 0001:00001044       ?CallGuiMacroProc@@YAXXZ   10002044 f   ConEmuPlugin1900.obj
 0001:0000155f       $LN18                      1000255f     ConEmuPlugin1900.obj
 0001:0000157b       $LN14                      1000257b     ConEmuPlugin1900.obj
 0001:00001610       ?GetFarSetting@@YAHPAXIPB_W@Z 10002610 f   ConEmuPlugin1900.obj
 0001:00003038       ?CallGuiMacroDlg@@YGHPAXHH0@Z 10004038 f   ConEmuPlugin2800.obj
 0001:000031bb       ?CallGuiMacroProc@@YAXXZ   100041bb f   ConEmuPlugin2800.obj
 0001:00003467       ?FreeMacroResult@@YGXPAXPAUFarMacroValue@@I@Z 10004467 f   ConEmuPlugin2800.obj
 0001:000034d2       $LN19                      100044d2     ConEmuPlugin2800.obj
 0001:000034f2       $LN15                      100044f2     ConEmuPlugin2800.obj
 0001:00003589       ?GetFarSetting@@YAHPAXIPB_W@Z 10004589 f   ConEmuPlugin2800.obj
 0001:00004d13       ?WExists@@YAHABUWindowInfo@@ABV?$MArray@UWindowInfo@@@@@Z 10005d13 f   ConEmuPlugin2800.obj
 0001:00004d57       ?WLoadWindows@@YAHAAV?$MArray@UWindowInfo@@@@H@Z 10005d57 f   ConEmuPlugin2800.obj
 0001:0000523b       ?CallGuiMacroDlg@@YGJPAXHHJ@Z 1000623b f   ConEmuPlugin995.obj
 0001:000053ab       ?CallGuiMacroProc@@YAXXZ   100063ab f   ConEmuPlugin995.obj
 0001:0000569b       $LN18                      1000669b     ConEmuPlugin995.obj
 0001:000056b7       $LN14                      100066b7     ConEmuPlugin995.obj
 0001:00006783       ?CallGuiMacroDlg@@YGJPAXHHJ@Z 10007783 f   ConEmuPluginA.obj
 0001:000069a8       ?CallGuiMacroProc@@YAXXZ   100079a8 f   ConEmuPluginA.obj
 0001:00009bff       ?LoadFarVersion@@YA_NAAUFarVersion@@AAY0CAA@_W@Z 1000abff f   ConEmuPluginBase.obj
 0001:00009c91       ?LoadFarVersion@@YA_NPB_WAAUFarVersion@@AAY0CAA@_W@Z 1000ac91 f   ConEmuPluginBase.obj
 0001:00009d98       ?LoadModuleVersion@@YA_NPB_WAAUtagVS_FIXEDFILEINFO@@PA_WI@Z 1000ad98 f   ConEmuPluginBase.obj
 0001:0000b9ea       $LN73                      1000c9ea     ConEmuPluginBase.obj
 0001:0000dd3b       ?StringLengthWorkerW@@YGJPB_WIPAI@Z 1000ed3b f   ConEmuPluginBase.obj
 0001:0000dd82       ?StringValidateDestAndLengthW@@YGJPB_WIPAII@Z 1000ed82 f   ConEmuPluginBase.obj
 0001:000124f7       ?StringCopyWorkerW@@YGJPA_WIPAIPB_WI@Z 100134f7 f   ConEmuPluginBase.obj
 0001:000124f7       ?StringCopyWorkerW@@YGJPA_WIPAIPB_WI@Z 100134f7 f   common-kernel32:ConEmuCheck.obj
 0001:0001429e       ?compare@cmp@?1??Find@MToolHelpProcess@@QAE_NKPAUtagPROCESSENTRY32W@@@Z@SA_N0J@Z 1001529e f   common-kernel32:MProcess.obj
 0001:00016780       $$000000                   10017780     LIBCMT:chkstk.obj
 0001:000167b0       $$000000                   100177b0     LIBCMT:ullshr.obj
 0001:000167f2       ?__scrt_initialize_thread_safe_statics@@YAHXZ 100177f2 f   LIBCMT:thread_safe_statics.obj
 0001:00016819       ?__scrt_initialize_thread_safe_statics_platform_specific@@YAXXZ 10017819 f   LIBCMT:thread_safe_statics.obj
 0001:000168e9       ?__scrt_uninitialize_thread_safe_statics@@YAXXZ 100178e9 f   LIBCMT:thread_safe_statics.obj
 0001:00016a4f       ?dllmain_crt_dispatch@@YGHQAUHINSTANCE__@@KQAX@Z 10017a4f f   LIBCMT:dll_dllmain.obj
 0001:00016aa2       ?dllmain_crt_process_attach@@YAHQAUHINSTANCE__@@QAX@Z 10017aa2 f   LIBCMT:dll_dllmain.obj
 0001:00016ba1       ?dllmain_crt_process_detach@@YAH_N@Z 10017ba1 f   LIBCMT:dll_dllmain.obj
 0001:00016c29       ?dllmain_dispatch@@YAHQAUHINSTANCE__@@KQAX@Z 10017c29 f   LIBCMT:dll_dllmain.obj
 0001:00016d80       $$000000                   10017d80     LIBCMT:_sehprolg4_.obj
 0001:00016ddb       ?find_pe_section@@YAPAU_IMAGE_SECTION_HEADER@@QAEI@Z 10017ddb f   LIBCMT:utility.obj
 0001:0001736b       ___get_entropy             1001836b f   LIBCMT:gs_support.obj
 0001:000179f0       $$000000                   100189f0     libvcruntime:memmove.obj
 0001:00017c54       TrailingUpVec              10018c54     libvcruntime:memmove.obj
 0001:00017d00       TrailingDownVec            10018d00     libvcruntime:memmove.obj
 0001:000182c0       $$000000                   100192c0     libvcruntime:memset.obj
 0001:00018620       $$000000                   10019620     libvcruntime:memcpy.obj
 0001:00018884       TrailingUpVec              10019884     libvcruntime:memcpy.obj
 0001:00018930       TrailingDownVec            10019930     libvcruntime:memcpy.obj
 0001:00018ba0       $$000000                   10019ba0     libvcruntime:strrchr.obj
 0001:00018ce0       $$000000                   10019ce0     libvcruntime:strchr.obj
 0001:00018e10       _ValidateLocalCookies      10019e10 f   libvcruntime:_chandler4_.obj
 0001:00018fca       ?try_get_first_available_module@@YAPAUHINSTANCE__@@QBW4module_id@?A0xb1b306fc@@0@Z 10019fca f   libvcruntime:winapi_downlevel.obj
 0001:00019090       ?try_get_function@@YAPAXW4function_id@?A0xb1b306fc@@QBDQBW4module_id@2@2@Z 1001a090 f   libvcruntime:winapi_downlevel.obj
 0001:000194e0       $$000000                   1001a4e0     libvcruntime:lowhelpr.obj
 0001:000195c9       ?CallCatchBlock@@YAPAXPAUEHExceptionRecord@@PAUEHRegistrationNode@@PAU_CONTEXT@@PBU_s_FuncInfo@@PAXHK@Z 1001a5c9 f   libvcruntime:frame.obj
 0001:00019785       ?CallUnexpected@@YAXPBU_s_ESTypeList@@@Z 1001a785 f   libvcruntime:frame.obj
 0001:000197a5       __catch$?CallUnexpected@@YAXPBU_s_ESTypeList@@@Z$0 1001a7a5 f   libvcruntime:frame.obj
 0001:000197bf       ?CatchIt@@YAXPAUEHExceptionRecord@@PAUEHRegistrationNode@@PAU_CONTEXT@@PAXPBU_s_FuncInfo@@PBU_s_HandlerType@@PBU_s_CatchableType@@PBU_s_TryBlockMapEntry@@H1E@Z 1001a7bf f   libvcruntime:frame.obj
 0001:00019838       ?ExFilterRethrow@@YAHPAU_EXCEPTION_POINTERS@@@Z 1001a838 f   libvcruntime:frame.obj
 0001:00019882       ?FindHandler@@YAXPAUEHExceptionRecord@@PAUEHRegistrationNode@@PAU_CONTEXT@@PAXPBU_s_FuncInfo@@EH1@Z 1001a882 f   libvcruntime:frame.obj
 0001:00019be3       ?FindHandlerForForeignException@@YAXPAUEHExceptionRecord@@PAUEHRegistrationNode@@PAU_CONTEXT@@PAXPBU_s_FuncInfo@@HH1@Z 1001abe3 f   libvcruntime:frame.obj
 0001:00019cfe       ?IsInExceptionSpec@@YAEPAUEHExceptionRecord@@PBU_s_ESTypeList@@@Z 1001acfe f   libvcruntime:frame.obj
 0001:00019d9a       ?Is_bad_exception_allowed@@YAEPBU_s_ESTypeList@@@Z 1001ad9a f   libvcruntime:frame.obj
 0001:0001a2a0       $$000000                   1001b2a0     libvcruntime:_exsup4_.obj
 0001:0001a330       __unwind_handler4          1001b330 f   libvcruntime:_exsup4_.obj
 0001:0001a480       $$000000                   1001b480     libvcruntime:_exsup_.obj
 0001:0001a4a1       __unwind_handler           1001b4a1 f   libvcruntime:_exsup_.obj
 0001:0001a6ca       ??$common_vsprintf@Vstandard_base@__crt_stdio_output@@D@@YAH_KQADIQBDQAU__crt_locale_pointers@@1@Z 1001b6ca f   libucrt:output.obj
 0001:0001a846       ??$common_vsprintf@Vstandard_base@__crt_stdio_output@@_W@@YAH_KQA_WIQB_WQAU__crt_locale_pointers@@QAD@Z 1001b846 f   libucrt:output.obj
 0001:0001b175       $LN54                      1001c175     libucrt:output.obj
 0001:0001b295       $LN54                      1001c295     libucrt:output.obj
 0001:0001bc58       $LN19                      1001cc58     libucrt:output.obj
 0001:0001d479       ?atexit_exception_filter@@YAHK@Z 1001e479 f   libucrt:exit.obj
 0001:0001d48c       ?common_exit@@YAXHW4_crt_exit_cleanup_mode@@W4_crt_exit_return_mode@@@Z 1001e48c f   libucrt:exit.obj
 0001:0001d5a5       ?exit_or_terminate_process@@YAXI@Z 1001e5a5 f   libucrt:exit.obj
 0001:0001d5e6       ?is_managed_app@@YA_NXZ    1001e5e6 f   libucrt:exit.obj
 0001:0001d62a       ?try_cor_exit_process@@YAXI@Z 1001e62a f   libucrt:exit.obj
 0001:0001d6ce       ??$common_configure_argv@D@@YAHW4_crt_argv_mode@@@Z 1001e6ce f   libucrt:argv_parsing.obj
 0001:0001d7f2       ??$parse_command_line@D@@YAXPADPAPAD0PAI2@Z 1001e7f2 f   libucrt:argv_parsing.obj
 0001:0001d9c7       ??$common_initialize_environment_nolock@D@@YAHXZ 1001e9c7 f   libucrt:environment_initialization.obj
 0001:0001da20       ??$create_environment@D@@YAQAPADQAD@Z 1001ea20 f   libucrt:environment_initialization.obj
 0001:0001daf1       ??$free_environment@_W@@YAXQAPA_W@Z 1001eaf1 f   libucrt:environment_initialization.obj
 0001:0001daf1       ??$free_environment@D@@YAXQAPAD@Z 1001eaf1 f   libucrt:environment_initialization.obj
 0001:0001db60       ??$uninitialize_environment_internal@D@@YAXAAPAPAD@Z 1001eb60 f   libucrt:environment_initialization.obj
 0001:0001db7b       ??$uninitialize_environment_internal@_W@@YAXAAPAPA_W@Z 1001eb7b f   libucrt:environment_initialization.obj
 0001:0001dd14       ??R<lambda_275893d493268fdec8709772e3fcec0e>@@QBEHXZ 1001ed14 f   libucrt:onexit.obj
 0001:0001de34       ??R<lambda_4e60a939b0d047cfe11ddc22648dfba9>@@QBEHXZ 1001ee34 f   libucrt:onexit.obj
 0001:0001e009       _initialize_global_variables 1001f009 f   libucrt:initialization.obj
 0001:0001e01b       _initialize_c              1001f01b f   libucrt:initialization.obj
 0001:0001e035       _uninitialize_environment  1001f035 f   libucrt:initialization.obj
 0001:0001e03d       _report_memory_leaks       1001f03d f   libucrt:initialization.obj
 0001:0001e03d       _uninitialize_c            1001f03d f   libucrt:initialization.obj
 0001:0001e03d       _initialize_environment    1001f03d f   libucrt:initialization.obj
 0001:0001e03d       _uninitialize_global_state_isolation 1001f03d f   libucrt:initialization.obj
 0001:0001e03d       _initialize_global_state_isolation 1001f03d f   libucrt:initialization.obj
 0001:0001e040       _initialize_pointers       1001f040 f   libucrt:initialization.obj
 0001:0001e07d       _uninitialize_vcruntime    1001f07d f   libucrt:initialization.obj
 0001:0001e086       _uninitialize_allocated_memory 1001f086 f   libucrt:initialization.obj
 0001:0001e586       ??$common_tox_l@$1?internal_isupper_l@@YA_NHQAU__crt_locale_pointers@@@Z$1?internal_map_lower@@YAHH0@Z@@YAHHKQAU__crt_locale_pointers@@@Z 1001f586 f   libucrt:tolower_toupper.obj
 0001:0001e6d0       ?internal_isupper_l@@YA_NHQAU__crt_locale_pointers@@@Z 1001f6d0 f   libucrt:tolower_toupper.obj
 0001:0001eed7       ?construct_ptd@@YAXQAU__acrt_ptd@@QAPAU__crt_locale_data@@@Z 1001fed7 f   libucrt:per_thread_data.obj
 0001:0001ef50       ?destroy_fls@@YGXPAX@Z     1001ff50 f   libucrt:per_thread_data.obj
 0001:0001ef71       ?destroy_ptd@@YAXQAU__acrt_ptd@@@Z 1001ff71 f   libucrt:per_thread_data.obj
 0001:0001f01a       ?replace_current_thread_locale_nolock@@YAXQAU__acrt_ptd@@QAU__crt_locale_data@@@Z 1002001a f   libucrt:per_thread_data.obj
 0001:0001f2c4       ?fp_format_a@@YAHQBNPADIQADIH_NIQAU__crt_locale_pointers@@@Z 100202c4 f   libucrt:cvt.obj
 0001:0001f5c7       ?fp_format_e@@YAHQBNQADI1IH_NIQAU__crt_locale_pointers@@@Z 100205c7 f   libucrt:cvt.obj
 0001:0001f662       ?fp_format_e_internal@@YAHQADIH_NIQAU_strflt@@1QAU__crt_locale_pointers@@@Z 10020662 f   libucrt:cvt.obj
 0001:0001f7ad       ?fp_format_f@@YAHQBNQADI1IHQAU__crt_locale_pointers@@@Z 100207ad f   libucrt:cvt.obj
 0001:0001f83a       ?fp_format_f_internal@@YAHQADIHQAU_strflt@@_NQAU__crt_locale_pointers@@@Z 1002083a f   libucrt:cvt.obj
 0001:0001f911       ?fp_format_g@@YAHQBNQADI1IH_NIQAU__crt_locale_pointers@@@Z 10020911 f   libucrt:cvt.obj
 0001:0001f9d9       ?fp_format_nan_or_infinity@@YAHW4__acrt_fp_class@@_NPADI1@Z 100209d9 f   libucrt:cvt.obj
 0001:0001fad1       ?shift_bytes@@YAXQADI0H@Z  10020ad1 f   libucrt:cvt.obj
 0001:0001fe23       ?initialize_inherited_file_handles_nolock@@YAXXZ 10020e23 f   libucrt:ioinit.obj
 0001:0001fed9       ?initialize_stdio_handles_nolock@@YAXXZ 10020ed9 f   libucrt:ioinit.obj
 0001:00020208       ?try_get_function@@YAPAXW4function_id@?A0x352e5c4b@@QBDQBW4module_id@2@2@Z 10021208 f   libucrt:winapi_thunks.obj
 0001:000202a4       ?try_get_module@@YAPAUHINSTANCE__@@W4module_id@?A0x352e5c4b@@@Z 100212a4 f   libucrt:winapi_thunks.obj
 0001:000206a3       ?<helper_func_cdecl>@<lambda_62bb7ecb46d0a77b591a051c43eb5ad1>@@CAHPBX0@Z 100216a3 f   libucrt:argv_wildcards.obj
 0001:000206bb       ??$common_expand_argv_wildcards@D@@YAHQAPADQAPAPAD@Z 100216bb f   libucrt:argv_wildcards.obj
 0001:0002084b       ??$copy_and_add_argument_to_buffer@D@@YAHQBD0IAAV?$argument_list@D@?A0xb0e4b824@@@Z 1002184b f   libucrt:argv_wildcards.obj
 0001:000208e1       ??$expand_argument_wildcards@D@@YAHQAD0AAV?$argument_list@D@?A0xb0e4b824@@@Z 100218e1 f   libucrt:argv_wildcards.obj
 0001:00020bbc       ??R<lambda_ad1ced32f4ac17aa236e5ef05d6b3b7c>@@QBEXXZ 10021bbc f   libucrt:mbctype.obj
 0001:00020c80       ?CPtoLocaleName@@YAPB_WH@Z 10021c80 f   libucrt:mbctype.obj
 0001:00020cbe       ?getSystemCP@@YAHH@Z       10021cbe f   libucrt:mbctype.obj
 0001:00020d31       ?setSBCS@@YAXPAU__crt_multibyte_data@@@Z 10021d31 f   libucrt:mbctype.obj
 0001:00020d96       ?setSBUpLow@@YAXPAU__crt_multibyte_data@@@Z 10021d96 f   libucrt:mbctype.obj
 0001:00020f2a       ?setmbcp_internal@@YAHH_N@Z 10021f2a f   libucrt:mbctype.obj
 0001:000212dc       ?x_ismbbtype_l@@YAHPAU__crt_locale_pointers@@IHH@Z 100222dc f   libucrt:ismbbyte.obj
 0001:00021366       ?find_end_of_double_null_terminated_sequence@@YAPB_WQB_W@Z 10022366 f   libucrt:get_environment_from_os.obj
 0001:000216af       ?get_global_action_nolock@@YAPAP6AXH@ZH@Z 100226af f   libucrt:signal.obj
 0001:000216f1       ?siglookup@@YAPAU__crt_signal_action_t@@HQAU1@@Z 100226f1 f   libucrt:signal.obj
 0001:00021a31       ?__acrt_LCMapStringA_stat@@YAHPAU__crt_locale_pointers@@PB_WKPBDHPADHHH@Z 10022a31 f   libucrt:lcmapstringa.obj
 0001:0002397a       _memcpy_s                  1002497a f   libucrt:cfout.obj
 0001:0002397a       _memcpy_s                  1002497a f   libucrt:mbctype.obj
 0001:00023b51       _common_flush_all          10024b51 f   libucrt:fflush.obj
 0001:00023e24       ?free_crt_array_internal@@YAXQAPBXI@Z 10024e24 f   libucrt:inittime.obj
 0001:000242e9       ?GetTableIndexFromLocaleName@@YAHPB_W@Z 100252e9 f   libucrt:lcidtoname_downlevel.obj
 0001:000243e0       ?shortsort@@YAXPAD0IP6AHPBX1@Z@Z 100253e0 f   libucrt:qsort.obj
 0001:00024480       ?swap@@YAXPAD0I@Z          10025480 f   libucrt:qsort.obj
 0001:0002485a       ??$common_tcsncpy_s@D@@YAHQADIQBDI@Z 1002585a f   libucrt:strncpy_s.obj
 0001:00024920       $$000000                   10025920     libucrt:strpbrk.obj
 0001:00024a04       ?initialize_multibyte@@YAHXZ 10025a04 f   libucrt:multibyte_initializer.obj
 0001:00024b80       $$000000                   10025b80     libucrt:log10.obj
 0001:00024cd0       $$000000                   10025cd0     libucrt:ceil_pentium4.obj
 0001:00024ded       ?write_double_translated_ansi_nolock@@YA?AUwrite_result@?A0x47fa6670@@HQBDI@Z 10025ded f   libucrt:write.obj
 0001:00024fa2       ?write_double_translated_unicode_nolock@@YA?AUwrite_result@?A0x47fa6670@@QBDI@Z 10025fa2 f   libucrt:write.obj
 0001:0002500f       ?write_requires_double_translation_nolock@@YA_NH@Z 1002600f f   libucrt:write.obj
 0001:00025085       ?write_text_ansi_nolock@@YA?AUwrite_result@?A0x47fa6670@@HQBDI@Z 10026085 f   libucrt:write.obj
 0001:00025164       ?write_text_utf16le_nolock@@YA?AUwrite_result@?A0x47fa6670@@HQBDI@Z 10026164 f   libucrt:write.obj
 0001:00025252       ?write_text_utf8_nolock@@YA?AUwrite_result@?A0x47fa6670@@HQBDI@Z 10026252 f   libucrt:write.obj
 0001:00025676       ??$common_lseek_nolock@_J@@YA_JH_JH@Z 10026676 f   libucrt:lseek.obj
 0001:0002593a       ___get_abstract_control_sse2 1002693a f   libucrt:_fenvutils.obj
 0001:000259b7       ___get_abstract_control_x87 100269b7 f   libucrt:_fenvutils.obj
 0001:00025a2a       ___get_machine_control     10026a2a f   libucrt:_fenvutils.obj
 0001:00025a9b       ___get_machine_control_sse2 10026a9b f   libucrt:_fenvutils.obj
 0001:00025b1b       ___get_machine_status_sse2 10026b1b f   libucrt:_fenvutils.obj
 0001:00025b7c       ___get_machine_status_x87  10026b7c f   libucrt:_fenvutils.obj
 0001:00025ec0       $$000000                   10026ec0     libucrt:log10_pentium4.obj
 0001:00026150       $$000000                   10027150     libucrt:87tran.obj
 0001:00026350       $$000000                   10027350     libucrt:87disp.obj
 0001:00026550       $$000000                   10027550     libucrt:common.obj
 0001:000266e0       $$000000                   100276e0     libucrt:genexcep.obj
 0001:00026c50       $$000000                   10027c50     libucrt:_strnicm.obj
 0001:00027ca0       $$000000                   10028ca0     LIBCMT:ulldvrm.obj
 0001:00027d40       $$000000                   10028d40     LIBCMT:llmul.obj
 0001:00027d80       $$000000                   10028d80     LIBCMT:_sehprolg4gs_.obj
 0001:00027de0       $$000000                   10028de0     LIBCMT:lldvrm.obj
 0001:00027ec0       $$000000                   10028ec0     LIBCMT:alloca16.obj
 0001:00027ef0       $$000000                   10028ef0     LIBCMT:llshl.obj
 0001:00027f10       $$000000                   10028f10     LIBCMT:_ftol2_.obj
 0001:00027fc5       __unwindfunclet$?RegisterBackground@@YGHPAURegisterBackgroundArg@@@Z$0 10028fc5 f   ConEmuPlugin.obj
 0001:00027fd5       __ehhandler$?RegisterBackground@@YGHPAURegisterBackgroundArg@@@Z 10028fd5 f   ConEmuPlugin.obj
 0001:00027ff0       __unwindfunclet$?SetWindow@CPluginW2800@@UAEXH@Z$0 10028ff0 f   ConEmuPlugin2800.obj
 0001:00027ff8       __ehhandler$?SetWindow@CPluginW2800@@UAEXH@Z 10028ff8 f   ConEmuPlugin2800.obj
 0001:00028013       __unwindfunclet$?UpdateConEmuTabsApi@CPluginW2800@@UAE_NH@Z$1 10029013 f   ConEmuPlugin2800.obj
 0001:0002801e       __ehhandler$?UpdateConEmuTabsApi@CPluginW2800@@UAE_NH@Z 1002901e f   ConEmuPlugin2800.obj
 0001:00028046       __unwindfunclet$??0CPluginW995@@QAE@XZ$0 10029046 f   ConEmuPlugin995.obj
 0001:00028046       __unwindfunclet$??0CPluginAnsi@@QAE@XZ$0 10029046 f   ConEmuPluginA.obj
 0001:0002804e       __ehhandler$??0CPluginAnsi@@QAE@XZ 1002904e f   ConEmuPluginA.obj
 0001:0002804e       __ehhandler$??0CPluginW995@@QAE@XZ 1002904e f   ConEmuPlugin995.obj
 0001:00028069       __ehhandler$??1MWow64Disable@@QAE@XZ 10029069 f   ConEmuPluginBase.obj
 0001:00028069       __ehhandler$??1?$MArray@UWindowInfo@@@@QAE@XZ 10029069 f   ConEmuPlugin2800.obj
 0001:00028084       __unwindfunclet$?CheckConEmuDetached@CPluginBase@@SAXXZ$0 10029084 f   ConEmuPluginBase.obj
 0001:0002808f       __ehhandler$?CheckConEmuDetached@CPluginBase@@SAXXZ 1002908f f   ConEmuPluginBase.obj
 0001:000280b7       __unwindfunclet$?CreateTabs@CPluginBase@@SA_NH@Z$0 100290b7 f   ConEmuPluginBase.obj
 0001:000280b7       __unwindfunclet$?IsCurrentTabModal@CPluginBase@@QAE_NXZ$0 100290b7 f   ConEmuPluginBase.obj
 0001:000280bf       __ehhandler$?IsCurrentTabModal@CPluginBase@@QAE_NXZ 100290bf f   ConEmuPluginBase.obj
 0001:000280bf       __ehhandler$?CreateTabs@CPluginBase@@SA_NH@Z 100290bf f   ConEmuPluginBase.obj
 0001:000280da       __unwindfunclet$?DllCheckUnique@CPluginBase@@KA_N_N@Z$0 100290da f   ConEmuPluginBase.obj
 0001:000280e5       __unwindfunclet$?DllCheckUnique@CPluginBase@@KA_N_N@Z$1 100290e5 f   ConEmuPluginBase.obj
 0001:000280f0       __ehhandler$?DllCheckUnique@CPluginBase@@KA_N_N@Z 100290f0 f   ConEmuPluginBase.obj
 0001:00028118       __unwindfunclet$?DllMain_ProcessAttach@CPluginBase@@KAXPAUHINSTANCE__@@@Z$0 10029118 f   ConEmuPluginBase.obj
 0001:00028128       __unwindfunclet$?DllMain_ProcessAttach@CPluginBase@@KAXPAUHINSTANCE__@@@Z$1 10029128 f   ConEmuPluginBase.obj
 0001:00028138       __ehhandler$?DllMain_ProcessAttach@CPluginBase@@KAXPAUHINSTANCE__@@@Z 10029138 f   ConEmuPluginBase.obj
 0001:00028153       __unwindfunclet$?MonitorThreadProcW@CPluginBase@@SGKPAX@Z$0 10029153 f   ConEmuPluginBase.obj
 0001:0002815e       __ehhandler$?MonitorThreadProcW@CPluginBase@@SGKPAX@Z 1002915e f   ConEmuPluginBase.obj
 0001:00028186       __unwindfunclet$?Plugin@@YAPAVCPluginBase@@XZ$0 10029186 f   ConEmuPluginBase.obj
 0001:00028196       __unwindfunclet$?Plugin@@YAPAVCPluginBase@@XZ$1 10029196 f   ConEmuPluginBase.obj
 0001:000281a6       __unwindfunclet$?Plugin@@YAPAVCPluginBase@@XZ$2 100291a6 f   ConEmuPluginBase.obj
 0001:000281b6       __unwindfunclet$?Plugin@@YAPAVCPluginBase@@XZ$3 100291b6 f   ConEmuPluginBase.obj
 0001:000281c6       __ehhandler$?Plugin@@YAPAVCPluginBase@@XZ 100291c6 f   ConEmuPluginBase.obj
 0001:000281e1       __unwindfunclet$?ProcessCommand@CPluginBase@@QAE_NKHPAXPAPAUCESERVER_REQ@@_N@Z$0 100291e1 f   ConEmuPluginBase.obj
 0001:000281e9       __ehhandler$?ProcessCommand@CPluginBase@@QAE_NKHPAXPAPAUCESERVER_REQ@@_N@Z 100291e9 f   ConEmuPluginBase.obj
 0001:00028204       __unwindfunclet$?RunExternalProgram@CPluginBase@@QAE_NPA_W@Z$0 10029204 f   ConEmuPluginBase.obj
 0001:0002820f       __unwindfunclet$?RunExternalProgram@CPluginBase@@QAE_NPA_W@Z$1 1002920f f   ConEmuPluginBase.obj
 0001:0002821a       __unwindfunclet$?RunExternalProgram@CPluginBase@@QAE_NPA_W@Z$2 1002921a f   ConEmuPluginBase.obj
 0001:00028222       __ehhandler$?RunExternalProgram@CPluginBase@@QAE_NPA_W@Z 10029222 f   ConEmuPluginBase.obj
 0001:0002824a       __unwindfunclet$?RunExternalProgramW@CPluginBase@@SA_NPA_W0_N@Z$0 1002924a f   ConEmuPluginBase.obj
 0001:00028252       __unwindfunclet$?RunExternalProgramW@CPluginBase@@SA_NPA_W0_N@Z$1 10029252 f   ConEmuPluginBase.obj
 0001:0002825a       __ehhandler$?RunExternalProgramW@CPluginBase@@SA_NPA_W0_N@Z 1002925a f   ConEmuPluginBase.obj
 0001:00028278       __unwindfunclet$?RegisterSubplugin@CPluginBackground@@QAEHPAURegisterBackgroundArg@@@Z$0 10029278 f   PluginBackground.obj
 0001:00028278       __unwindfunclet$?SendTabs@CPluginBase@@SAXH_N@Z$0 10029278 f   ConEmuPluginBase.obj
 0001:00028280       __ehhandler$?RegisterSubplugin@CPluginBackground@@QAEHPAURegisterBackgroundArg@@@Z 10029280 f   PluginBackground.obj
 0001:00028280       __ehhandler$?SendTabs@CPluginBase@@SAXH_N@Z 10029280 f   ConEmuPluginBase.obj
 0001:0002829b       __unwindfunclet$?ShowProtocolWarning@CPluginBase@@KAXXZ$0 1002929b f   ConEmuPluginBase.obj
 0001:000282a6       __ehhandler$?ShowProtocolWarning@CPluginBase@@KAXXZ 100292a6 f   ConEmuPluginBase.obj
 0001:000282ce       __unwindfunclet$?UpdateConEmuTabs@CPluginBase@@QAE_N_N@Z$0 100292ce f   ConEmuPluginBase.obj
 0001:000282d6       __ehhandler$?UpdateConEmuTabs@CPluginBase@@QAE_N_N@Z 100292d6 f   ConEmuPluginBase.obj
 0001:000282f1       __unwindfunclet$?cmd_OpenEditorLine@CPluginBase@@QAE_NPAUCESERVER_REQ_FAREDITOR@@@Z$0 100292f1 f   ConEmuPluginBase.obj
 0001:000282f9       __ehhandler$?cmd_OpenEditorLine@CPluginBase@@QAE_NPAUCESERVER_REQ_FAREDITOR@@@Z 100292f9 f   ConEmuPluginBase.obj
 0001:00028314       __unwindfunclet$??0CPluginBackground@@QAE@XZ$0 10029314 f   PluginBackground.obj
 0001:00028324       __ehhandler$??0CPluginBackground@@QAE@XZ 10029324 f   PluginBackground.obj
 0001:0002833f       __ehhandler$??1CPluginBackground@@QAE@XZ 1002933f f   PluginBackground.obj
 0001:0002835a       __unwindfunclet$?LoadThSet@CPluginBackground@@IAEHH@Z$0 1002935a f   PluginBackground.obj
 0001:00028365       __ehhandler$?LoadThSet@CPluginBackground@@IAEHH@Z 10029365 f   PluginBackground.obj
 0001:0002838d       __unwindfunclet$?UpdateBackground@CPluginBackground@@IAEXXZ$0 1002938d f   PluginBackground.obj
 0001:00028398       __ehhandler$?UpdateBackground@CPluginBackground@@IAEXXZ 10029398 f   PluginBackground.obj
 0001:000283c0       __unwindfunclet$?PlugServerCommand@@YGHPAXPAUCESERVER_REQ@@AAPAU1@AAK3J@Z$0 100293c0 f   PluginSrv.obj
 0001:000283c8       __unwindfunclet$?PlugServerCommand@@YGHPAXPAUCESERVER_REQ@@AAPAU1@AAK3J@Z$1 100293c8 f   PluginSrv.obj
 0001:000283d0       __ehhandler$?PlugServerCommand@@YGHPAXPAUCESERVER_REQ@@AAPAU1@AAK3J@Z 100293d0 f   PluginSrv.obj
 0001:000283f5       __unwindfunclet$?FindConEmuBaseDir@@YAHAAY0BAF@_W0PAUHINSTANCE__@@@Z$0 100293f5 f   common-user32:ConEmuCheckEx.obj
 0001:00028400       __unwindfunclet$?FindConEmuBaseDir@@YAHAAY0BAF@_W0PAUHINSTANCE__@@@Z$1 10029400 f   common-user32:ConEmuCheckEx.obj
 0001:0002840b       __ehhandler$?FindConEmuBaseDir@@YAHAAY0BAF@_W0PAUHINSTANCE__@@@Z 1002940b f   common-user32:ConEmuCheckEx.obj
 0001:00028433       __unwindfunclet$?SearchAppPaths@@YA_NPB_WAAUCEStr@@_NPAU1@@Z$0 10029433 f   common-user32:WFiles.obj
 0001:0002843e       __ehhandler$?SearchAppPaths@@YA_NPB_WAAUCEStr@@_NPAU1@@Z 1002943e f   common-user32:WFiles.obj
 0001:00028466       __ehhandler$?CallUnexpected@@YAXPBU_s_ESTypeList@@@Z 10029466 f   libvcruntime:frame.obj
 0001:00028481       ??__FgsMapHelper@@YAXXZ    10029481 f   common-user32:WConsoleEx.obj
 0002:0000033c       ?gsMapHelper$initializer$@@3P6AXXZA 1002a33c     common-user32:WConsoleEx.obj
 0002:00000348       ?__scrt_initialize_tss_var@@3P6AHXZA 1002a348     LIBCMT:thread_safe_statics.obj
 0002:0000409c       _GS_ExceptionPointers      1002e09c     LIBCMT:gs_report.obj
 0002:000040a8       ?module_names@?A0xb1b306fc@@3QBQB_WB 1002e0a8     libvcruntime:winapi_downlevel.obj
 0002:00004160       ?candidate_modules@?1??try_get_FlsAlloc@@YAP6GKP6GXPAX@Z@ZXZ@4QBW4module_id@?A0xb1b306fc@@B 1002e160     libvcruntime:winapi_downlevel.obj
 0002:00004174       ?candidate_modules@?1??try_get_FlsFree@@YAP6GHK@ZXZ@4QBW4module_id@?A0xb1b306fc@@B 1002e174     libvcruntime:winapi_downlevel.obj
 0002:00004184       ?candidate_modules@?1??try_get_FlsGetValue@@YAP6GPAXK@ZXZ@4QBW4module_id@?A0xb1b306fc@@B 1002e184     libvcruntime:winapi_downlevel.obj
 0002:00004198       ?candidate_modules@?1??try_get_FlsSetValue@@YAP6GHKPAX@ZXZ@4QBW4module_id@?A0xb1b306fc@@B 1002e198     libvcruntime:winapi_downlevel.obj
 0002:000041ac       ?candidate_modules@?1??try_get_InitializeCriticalSectionEx@@YAP6GHPAU_RTL_CRITICAL_SECTION@@KK@ZXZ@4QBW4module_id@?A0xb1b306fc@@B 1002e1ac     libvcruntime:winapi_downlevel.obj
 0002:00004210       ?tokenTable@@3QBQBDB       1002e210     libvcruntime:undname.obj
 0002:00004248       ?nameTable@@3QBQBDB        1002e248     libvcruntime:undname.obj
 0002:00004390       ?rttiTable@@3QBQBDB        1002e390     libvcruntime:undname.obj
 0002:00004988       ?ExceptionTemplate@?1??_CxxThrowException@@9@8@4UEHExceptionRecord@@B 1002e988     libvcruntime:throw.obj
 0002:00004ae8       ___acrt_initializers       1002eae8     libucrt:initialization.obj
 0002:00004b60       _errtable                  1002eb60     libucrt:errno.obj
 0002:000059e0       _module_names              1002f9e0     libucrt:winapi_thunks.obj
 0002:00005e94       ?candidate_modules@?1??try_get_FlsAlloc@@YAP6GKP6GXPAX@Z@ZXZ@4QBW4module_id@?A0x352e5c4b@@B 1002fe94     libucrt:winapi_thunks.obj
 0002:00005e9c       ?candidate_modules@?1??try_get_FlsFree@@YAP6GHK@ZXZ@4QBW4module_id@?A0x352e5c4b@@B 1002fe9c     libucrt:winapi_thunks.obj
 0002:00005ea4       ?candidate_modules@?1??try_get_FlsGetValue@@YAP6GPAXK@ZXZ@4QBW4module_id@?A0x352e5c4b@@B 1002fea4     libucrt:winapi_thunks.obj
 0002:00005eac       ?candidate_modules@?1??try_get_FlsSetValue@@YAP6GHKPAX@ZXZ@4QBW4module_id@?A0x352e5c4b@@B 1002feac     libucrt:winapi_thunks.obj
 0002:00005eb4       ?candidate_modules@?1??try_get_GetCurrentPackageId@@YAP6GJPAIPAE@ZXZ@4QBW4module_id@?A0x352e5c4b@@B 1002feb4     libucrt:winapi_thunks.obj
 0002:00005ed0       ?candidate_modules@?1??try_get_InitializeCriticalSectionEx@@YAP6GHPAU_RTL_CRITICAL_SECTION@@KK@ZXZ@4QBW4module_id@?A0x352e5c4b@@B 1002fed0     libucrt:winapi_thunks.obj
 0002:00005ed8       ?candidate_modules@?1??try_get_LCMapStringEx@@YAP6GHPB_WK0HPA_WHPAU_nlsversioninfo@@PAXJ@ZXZ@4QBW4module_id@?A0x352e5c4b@@B 1002fed8     libucrt:winapi_thunks.obj
 0002:00005ef0       ?candidate_modules@?1??try_get_LocaleNameToLCID@@YAP6GKPB_WK@ZXZ@4QBW4module_id@?A0x352e5c4b@@B 1002fef0     libucrt:winapi_thunks.obj
 0002:00005f0c       __mb_locale_names          1002ff0c     libucrt:mbctype.obj
 0002:00006940       _LcidToLocaleNameTable     10030940     libucrt:lcidtoname_downlevel.obj
 0002:00007a60       _LocaleNameToIndexTable    10031a60     libucrt:lcidtoname_downlevel.obj
 0002:000089b0       LOG_name                   100329b0     libucrt:log10.obj
 0002:000089c0       _One                       100329c0     libucrt:ceil_pentium4.obj
 0002:000089d0       _Bns                       100329d0     libucrt:ceil_pentium4.obj
 0002:000089e0       _Zero                      100329e0     libucrt:ceil_pentium4.obj
 0002:000089f0       _S                         100329f0     libucrt:ceil_pentium4.obj
 0002:00008a00       _NegZero                   10032a00     libucrt:ceil_pentium4.obj
 0002:00008a10       emask                      10032a10     libucrt:log10_pentium4.obj
 0002:00008a20       CC                         10032a20     libucrt:log10_pentium4.obj
 0002:00008a30       Magic                      10032a30     libucrt:log10_pentium4.obj
 0002:00008a40       hi_mask                    10032a40     libucrt:log10_pentium4.obj
 0002:00008a50       LOG10_2                    10032a50     libucrt:log10_pentium4.obj
 0002:00008a60       place_L                    10032a60     libucrt:log10_pentium4.obj
 0002:00008a80       One                        10032a80     libucrt:log10_pentium4.obj
 0002:00008a90       Zero                       10032a90     libucrt:log10_pentium4.obj
 0002:00008aa0       Two52                      10032aa0     libucrt:log10_pentium4.obj
 0002:00008ab0       Infs                       10032ab0     libucrt:log10_pentium4.obj
 0002:00008ac0       NaN                        10032ac0     libucrt:log10_pentium4.obj
 0002:00008ad0       coeff                      10032ad0     libucrt:log10_pentium4.obj
 0002:00008b2e       _log2max                   10032b2e     libucrt:87tran.obj
 0002:00008b38       _smallarg                  10032b38     libucrt:87tran.obj
 0002:00008b42       _half                      10032b42     libucrt:87tran.obj
 0002:00008b8e       One                        10032b8e     libucrt:87disp.obj
 0002:00008b96       Three                      10032b96     libucrt:87disp.obj
 0002:00008b9e       XAMtoTagTab                10032b9e     libucrt:87disp.obj
 0002:00008bb0       One                        10032bb0     libucrt:common.obj
 0002:00008bc4       DblMax                     10032bc4     libucrt:common.obj
 0002:00008bcc       DblMin                     10032bcc     libucrt:common.obj
 0002:00008bd4       IeeeAdjO                   10032bd4     libucrt:common.obj
 0002:00008bdc       IeeeAdjU                   10032bdc     libucrt:common.obj
 0002:00008be4       _infinity                  10032be4     libucrt:common.obj
 0002:00008bec       _zero                      10032bec     libucrt:common.obj
 0002:00008c28       _over                      10032c28     libucrt:fpctrl.obj
 0002:00008c34       _under                     10032c34     libucrt:fpctrl.obj
 0002:000094f8       ?_names@?1??_get_fname@@9@9 100334f8     libucrt:fpexcept.obj
 0002:00009e98       __unwindtable$?RegisterBackground@@YGHPAURegisterBackgroundArg@@@Z 10033e98     ConEmuPlugin.obj
 0002:00009ea0       __ehfuncinfo$?RegisterBackground@@YGHPAURegisterBackgroundArg@@@Z 10033ea0     ConEmuPlugin.obj
 0002:00009ec4       __unwindtable$?SetWindow@CPluginW2800@@UAEXH@Z 10033ec4     ConEmuPlugin2800.obj
 0002:00009ed4       __ehfuncinfo$?SetWindow@CPluginW2800@@UAEXH@Z 10033ed4     ConEmuPlugin2800.obj
 0002:00009ef8       __unwindtable$?UpdateConEmuTabsApi@CPluginW2800@@UAE_NH@Z 10033ef8     ConEmuPlugin2800.obj
 0002:00009f08       __ehfuncinfo$?UpdateConEmuTabsApi@CPluginW2800@@UAE_NH@Z 10033f08     ConEmuPlugin2800.obj
 0002:00009f2c       __unwindtable$??0CPluginAnsi@@QAE@XZ 10033f2c     ConEmuPluginA.obj
 0002:00009f2c       __unwindtable$??0CPluginW995@@QAE@XZ 10033f2c     ConEmuPlugin995.obj
 0002:00009f34       __ehfuncinfo$??0CPluginAnsi@@QAE@XZ 10033f34     ConEmuPluginA.obj
 0002:00009f34       __ehfuncinfo$??0CPluginW995@@QAE@XZ 10033f34     ConEmuPlugin995.obj
 0002:00009f58       __unwindtable$?DllMain_ProcessAttach@CPluginBase@@KAXPAUHINSTANCE__@@@Z 10033f58     ConEmuPluginBase.obj
 0002:00009f68       __ehfuncinfo$?DllMain_ProcessAttach@CPluginBase@@KAXPAUHINSTANCE__@@@Z 10033f68     ConEmuPluginBase.obj
 0002:00009f8c       __unwindtable$?DllCheckUnique@CPluginBase@@KA_N_N@Z 10033f8c     ConEmuPluginBase.obj
 0002:00009f9c       __ehfuncinfo$?DllCheckUnique@CPluginBase@@KA_N_N@Z 10033f9c     ConEmuPluginBase.obj
 0002:00009fc0       __unwindtable$?ShowProtocolWarning@CPluginBase@@KAXXZ 10033fc0     ConEmuPluginBase.obj
 0002:00009fc8       __ehfuncinfo$?ShowProtocolWarning@CPluginBase@@KAXXZ 10033fc8     ConEmuPluginBase.obj
 0002:00009fec       __unwindtable$?RunExternalProgram@CPluginBase@@QAE_NPA_W@Z 10033fec     ConEmuPluginBase.obj
 0002:0000a004       __ehfuncinfo$?RunExternalProgram@CPluginBase@@QAE_NPA_W@Z 10034004     ConEmuPluginBase.obj
 0002:0000a028       __unwindtable$?UpdateConEmuTabs@CPluginBase@@QAE_N_N@Z 10034028     ConEmuPluginBase.obj
 0002:0000a030       __ehfuncinfo$?UpdateConEmuTabs@CPluginBase@@QAE_N_N@Z 10034030     ConEmuPluginBase.obj
 0002:0000a054       __unwindtable$?ProcessCommand@CPluginBase@@QAE_NKHPAXPAPAUCESERVER_REQ@@_N@Z 10034054     ConEmuPluginBase.obj
 0002:0000a05c       __ehfuncinfo$?ProcessCommand@CPluginBase@@QAE_NKHPAXPAPAUCESERVER_REQ@@_N@Z 1003405c     ConEmuPluginBase.obj
 0002:0000a080       __unwindtable$?cmd_OpenEditorLine@CPluginBase@@QAE_NPAUCESERVER_REQ_FAREDITOR@@@Z 10034080     ConEmuPluginBase.obj
 0002:0000a088       __ehfuncinfo$?cmd_OpenEditorLine@CPluginBase@@QAE_NPAUCESERVER_REQ_FAREDITOR@@@Z 10034088     ConEmuPluginBase.obj
 0002:0000a0ac       __unwindtable$?MonitorThreadProcW@CPluginBase@@SGKPAX@Z 100340ac     ConEmuPluginBase.obj
 0002:0000a0b4       __ehfuncinfo$?MonitorThreadProcW@CPluginBase@@SGKPAX@Z 100340b4     ConEmuPluginBase.obj
 0002:0000a0d8       __unwindtable$?CheckConEmuDetached@CPluginBase@@SAXXZ 100340d8     ConEmuPluginBase.obj
 0002:0000a0e0       __ehfuncinfo$?CheckConEmuDetached@CPluginBase@@SAXXZ 100340e0     ConEmuPluginBase.obj
 0002:0000a104       __unwindtable$?RunExternalProgramW@CPluginBase@@SA_NPA_W0_N@Z 10034104     ConEmuPluginBase.obj
 0002:0000a11c       __ehfuncinfo$?RunExternalProgramW@CPluginBase@@SA_NPA_W0_N@Z 1003411c     ConEmuPluginBase.obj
 0002:0000a140       __unwindtable$?IsCurrentTabModal@CPluginBase@@QAE_NXZ 10034140     ConEmuPluginBase.obj
 0002:0000a140       __unwindtable$?CreateTabs@CPluginBase@@SA_NH@Z 10034140     ConEmuPluginBase.obj
 0002:0000a148       __ehfuncinfo$?CreateTabs@CPluginBase@@SA_NH@Z 10034148     ConEmuPluginBase.obj
 0002:0000a148       __ehfuncinfo$?IsCurrentTabModal@CPluginBase@@QAE_NXZ 10034148     ConEmuPluginBase.obj
 0002:0000a16c       __unwindtable$?RegisterSubplugin@CPluginBackground@@QAEHPAURegisterBackgroundArg@@@Z 1003416c     PluginBackground.obj
 0002:0000a16c       __unwindtable$?SendTabs@CPluginBase@@SAXH_N@Z 1003416c     ConEmuPluginBase.obj
 0002:0000a174       __ehfuncinfo$?RegisterSubplugin@CPluginBackground@@QAEHPAURegisterBackgroundArg@@@Z 10034174     PluginBackground.obj
 0002:0000a174       __ehfuncinfo$?SendTabs@CPluginBase@@SAXH_N@Z 10034174     ConEmuPluginBase.obj
 0002:0000a198       __unwindtable$?Plugin@@YAPAVCPluginBase@@XZ 10034198     ConEmuPluginBase.obj
 0002:0000a1b8       __ehfuncinfo$?Plugin@@YAPAVCPluginBase@@XZ 100341b8     ConEmuPluginBase.obj
 0002:0000a1dc       __ehfuncinfo$??1MWow64Disable@@QAE@XZ 100341dc     ConEmuPluginBase.obj
 0002:0000a1dc       __ehfuncinfo$??1CPluginBackground@@QAE@XZ 100341dc     PluginBackground.obj
 0002:0000a1dc       __ehfuncinfo$??1?$MArray@UWindowInfo@@@@QAE@XZ 100341dc     ConEmuPlugin2800.obj
 0002:0000a200       __unwindtable$?LoadThSet@CPluginBackground@@IAEHH@Z 10034200     PluginBackground.obj
 0002:0000a208       __ehfuncinfo$?LoadThSet@CPluginBackground@@IAEHH@Z 10034208     PluginBackground.obj
 0002:0000a22c       __unwindtable$?UpdateBackground@CPluginBackground@@IAEXXZ 1003422c     PluginBackground.obj
 0002:0000a234       __ehfuncinfo$?UpdateBackground@CPluginBackground@@IAEXXZ 10034234     PluginBackground.obj
 0002:0000a258       __unwindtable$??0CPluginBackground@@QAE@XZ 10034258     PluginBackground.obj
 0002:0000a260       __ehfuncinfo$??0CPluginBackground@@QAE@XZ 10034260     PluginBackground.obj
 0002:0000a284       __unwindtable$?PlugServerCommand@@YGHPAXPAUCESERVER_REQ@@AAPAU1@AAK3J@Z 10034284     PluginSrv.obj
 0002:0000a294       __ehfuncinfo$?PlugServerCommand@@YGHPAXPAUCESERVER_REQ@@AAPAU1@AAK3J@Z 10034294     PluginSrv.obj
 0002:0000a2b8       __sehtable$?SetThreadName@@YAXKPAD@Z 100342b8     common-kernel32:WThreads.obj
 0002:0000a2d4       __unwindtable$?FindConEmuBaseDir@@YAHAAY0BAF@_W0PAUHINSTANCE__@@@Z 100342d4     common-user32:ConEmuCheckEx.obj
 0002:0000a2e4       __ehfuncinfo$?FindConEmuBaseDir@@YAHAAY0BAF@_W0PAUHINSTANCE__@@@Z 100342e4     common-user32:ConEmuCheckEx.obj
 0002:0000a308       __unwindtable$?SearchAppPaths@@YA_NPB_WAAUCEStr@@_NPAU1@@Z 10034308     common-user32:WFiles.obj
 0002:0000a310       __ehfuncinfo$?SearchAppPaths@@YA_NPB_WAAUCEStr@@_NPAU1@@Z 10034310     common-user32:WFiles.obj
 0002:0000a338       __sehtable$?dllmain_crt_process_attach@@YAHQAUHINSTANCE__@@QAX@Z 10034338     LIBCMT:dll_dllmain.obj
 0002:0000a358       __sehtable$?dllmain_crt_process_detach@@YAH_N@Z 10034358     LIBCMT:dll_dllmain.obj
 0002:0000a378       __sehtable$?dllmain_dispatch@@YAHQAUHINSTANCE__@@KQAX@Z 10034378     LIBCMT:dll_dllmain.obj
 0002:0000a398       __sehtable$___scrt_is_nonwritable_in_current_image 10034398     LIBCMT:utility.obj
 0002:0000a3b8       __sehtable$___DestructExceptionObject 100343b8     libvcruntime:ehhelpers.obj
 0002:0000a3d8       __sehtable$___BuildCatchObject 100343d8     libvcruntime:frame.obj
 0002:0000a3f8       __sehtable$___FrameUnwindToState 100343f8     libvcruntime:frame.obj
 0002:0000a420       __sehtable$?CallCatchBlock@@YAPAXPAUEHExceptionRecord@@PAUEHRegistrationNode@@PAU_CONTEXT@@PBU_s_FuncInfo@@PAXHK@Z 10034420     libvcruntime:frame.obj
 0002:0000a448       __catchsym$?CallUnexpected@@YAXPBU_s_ESTypeList@@@Z$2 10034448     libvcruntime:frame.obj
 0002:0000a458       __unwindtable$?CallUnexpected@@YAXPBU_s_ESTypeList@@@Z 10034458     libvcruntime:frame.obj
 0002:0000a468       __tryblocktable$?CallUnexpected@@YAXPBU_s_ESTypeList@@@Z 10034468     libvcruntime:frame.obj
 0002:0000a47c       __ehfuncinfo$?CallUnexpected@@YAXPBU_s_ESTypeList@@@Z 1003447c     libvcruntime:frame.obj
 0002:0000a4a0       __sehtable$___BuildCatchObjectHelper 100344a0     libvcruntime:frame.obj
 0002:0000a510       __sehtable$?common_exit@@YAXHW4_crt_exit_cleanup_mode@@W4_crt_exit_return_mode@@@Z 10034510     libucrt:exit.obj
 0002:0000a538       __sehtable$??$?RV<lambda_800076c951b434888f4765a74a194fcc>@@AAV<lambda_4e60a939b0d047cfe11ddc22648dfba9>@@V<lambda_6dbb1268764f43b569ce7b67e331d33a>@@@?$__crt_seh_guarded_call@H@@QAEH$$QAV<lambda_800076c951b434888f4765a74a194fcc>@@AAV<lambda_4e60a939b0d047cfe11ddc22648dfba9>@@$$QAV<lambda_6dbb1268764f43b569ce7b67e331d33a>@@@Z 10034538     libucrt:onexit.obj
 0002:0000a558       __sehtable$??$?RV<lambda_995298e7d72eb4c2aab26c0585b3abe5>@@AAV<lambda_275893d493268fdec8709772e3fcec0e>@@V<lambda_293819299cbf9a7022e18b56a874bb5c>@@@?$__crt_seh_guarded_call@H@@QAEH$$QAV<lambda_995298e7d72eb4c2aab26c0585b3abe5>@@AAV<lambda_275893d493268fdec8709772e3fcec0e>@@$$QAV<lambda_293819299cbf9a7022e18b56a874bb5c>@@@Z 10034558     libucrt:onexit.obj
 0002:0000a578       __sehtable$_terminate      10034578     libucrt:terminate.obj
 0002:0000a598       __sehtable$??$?RV<lambda_9df27f884b057bc3edfc946cb5b7cf47>@@AAV<lambda_e69574bed617af4e071282c136b37893>@@V<lambda_cc0d902bcbbeb830f749456577db4721>@@@?$__crt_seh_guarded_call@X@@QAEX$$QAV<lambda_9df27f884b057bc3edfc946cb5b7cf47>@@AAV<lambda_e69574bed617af4e071282c136b37893>@@$$QAV<lambda_cc0d902bcbbeb830f749456577db4721>@@@Z 10034598     libucrt:per_thread_data.obj
 0002:0000a5b8       __sehtable$??$?RV<lambda_3518db117f0e7cdb002338c5d3c47b6c>@@AAV<lambda_b2ea41f6bbb362cd97d94c6828d90b61>@@V<lambda_abdedf541bb04549bc734292b4a045d4>@@@?$__crt_seh_guarded_call@X@@QAEX$$QAV<lambda_3518db117f0e7cdb002338c5d3c47b6c>@@AAV<lambda_b2ea41f6bbb362cd97d94c6828d90b61>@@$$QAV<lambda_abdedf541bb04549bc734292b4a045d4>@@@Z 100345b8     libucrt:per_thread_data.obj
 0002:0000a5d8       __sehtable$??$?RV<lambda_51b6e8b1eb166f2a3faf91f424b38130>@@AAV<lambda_6250bd4b2a391816dd638c3bf72b0bcb>@@V<lambda_0b5a4a3e68152e1d9b943535f5f47bed>@@@?$__crt_seh_guarded_call@X@@QAEX$$QAV<lambda_51b6e8b1eb166f2a3faf91f424b38130>@@AAV<lambda_6250bd4b2a391816dd638c3bf72b0bcb>@@$$QAV<lambda_0b5a4a3e68152e1d9b943535f5f47bed>@@@Z 100345d8     libucrt:per_thread_data.obj
 0002:0000a5f8       __sehtable$??$?RV<lambda_5b71d36f03204c0beab531769a5b5694>@@AAV<lambda_be2b3da3f62db62e9dad5dc70221a656>@@V<lambda_8f9ce462984622f9bf76b59e2aaaf805>@@@?$__crt_seh_guarded_call@X@@QAEX$$QAV<lambda_5b71d36f03204c0beab531769a5b5694>@@AAV<lambda_be2b3da3f62db62e9dad5dc70221a656>@@$$QAV<lambda_8f9ce462984622f9bf76b59e2aaaf805>@@@Z 100345f8     libucrt:per_thread_data.obj
 0002:0000a618       __sehtable$___acrt_uninitialize_locale 10034618     libucrt:wsetlocale.obj
 0002:0000a638       __sehtable$___acrt_initialize_lowio 10034638     libucrt:ioinit.obj
 0002:0000a658       __sehtable$___acrt_update_thread_multibyte_data 10034658     libucrt:mbctype.obj
 0002:0000a678       __sehtable$??$?RV<lambda_978dc153c237d78434369da87b74ff60>@@AAV<lambda_ad1ced32f4ac17aa236e5ef05d6b3b7c>@@V<lambda_4a8533e2866a575feecb8298ce776b0d>@@@?$__crt_seh_guarded_call@X@@QAEX$$QAV<lambda_978dc153c237d78434369da87b74ff60>@@AAV<lambda_ad1ced32f4ac17aa236e5ef05d6b3b7c>@@$$QAV<lambda_4a8533e2866a575feecb8298ce776b0d>@@@Z 10034678     libucrt:mbctype.obj
 0002:0000a698       __sehtable$__query_new_handler 10034698     libucrt:new_handler.obj
 0002:0000a6b8       __sehtable$_raise          100346b8     libucrt:signal.obj
 0002:0000a6d8       __sehtable$??$?RV<lambda_a048d3beccc847880fc8490e18b82769>@@AAV<lambda_ec61778202f4f5fc7e7711acc23c3bca>@@V<lambda_f7496a158712204296dd6628a163878e>@@@?$__crt_seh_guarded_call@P6AXH@Z@@QAEP6AXH@Z$$QAV<lambda_a048d3beccc847880fc8490e18b82769>@@AAV<lambda_ec61778202f4f5fc7e7711acc23c3bca>@@$$QAV<lambda_f7496a158712204296dd6628a163878e>@@@Z 100346d8     libucrt:signal.obj
 0002:0000a6f8       __sehtable$___acrt_update_thread_locale_data 100346f8     libucrt:locale_refcounting.obj
 0002:0000a718       __sehtable$__fcloseall     10034718     libucrt:closeall.obj
 0002:0000a738       __sehtable$_common_flush_all 10034738     libucrt:fflush.obj
 0002:0000a760       __sehtable$___acrt_lowio_ensure_fh_exists 10034760     libucrt:osfinfo.obj
 0002:0000a780       __sehtable$__write         10034780     libucrt:write.obj
 0002:0000a7a0       __sehtable$_fclose         100347a0     libucrt:fclose.obj
 0002:0000a7c0       __sehtable$??$?RV<lambda_61cee617f5178ae960314fd4d05640a0>@@AAV<lambda_6978c1fb23f02e42e1d9e99668cc68aa>@@V<lambda_9cd88cf8ad10232537feb2133f08c833>@@@?$__crt_seh_guarded_call@H@@QAEH$$QAV<lambda_61cee617f5178ae960314fd4d05640a0>@@AAV<lambda_6978c1fb23f02e42e1d9e99668cc68aa>@@$$QAV<lambda_9cd88cf8ad10232537feb2133f08c833>@@@Z 100347c0     libucrt:commit.obj
 0002:0000a7e0       __sehtable$??$?RV<lambda_123407a5e2ac06da108355a851863b7a>@@AAV<lambda_2fe9b910cf3cbf4a0ab98a02ba45b3ec>@@V<lambda_ae55bdf541ad94d75914d381c370e64d>@@@?$__crt_seh_guarded_call@H@@QAEH$$QAV<lambda_123407a5e2ac06da108355a851863b7a>@@AAV<lambda_2fe9b910cf3cbf4a0ab98a02ba45b3ec>@@$$QAV<lambda_ae55bdf541ad94d75914d381c370e64d>@@@Z 100347e0     libucrt:close.obj
 0002:0000a800       __sehtable$__IsNonwritableInCurrentImage 10034800     LIBCMT:pesect.obj
 0002:0000a820       .edata                     10034820     ConEmu.exp
 0002:0000a848       rgpv                       10034848     ConEmu.exp
 0002:0000a8b4       rgszName                   100348b4     ConEmu.exp
 0002:0000a920       rgwOrd                     10034920     ConEmu.exp
 0002:0000a956       szName                     10034956     ConEmu.exp
 0002:0000a961       $N00001                    10034961     ConEmu.exp
 0002:0000a971       $N00002                    10034971     ConEmu.exp
 0002:0000a979       $N00003                    10034979     ConEmu.exp
 0002:0000a985       $N00004                    10034985     ConEmu.exp
 0002:0000a990       $N00005                    10034990     ConEmu.exp
 0002:0000a99e       $N00006                    1003499e     ConEmu.exp
 0002:0000a9af       $N00007                    100349af     ConEmu.exp
 0002:0000a9bd       $N00008                    100349bd     ConEmu.exp
 0002:0000a9cc       $N00009                    100349cc     ConEmu.exp
 0002:0000a9dc       $N00010                    100349dc     ConEmu.exp
 0002:0000a9e7       $N00011                    100349e7     ConEmu.exp
 0002:0000a9ed       $N00012                    100349ed     ConEmu.exp
 0002:0000aa00       $N00013                    10034a00     ConEmu.exp
 0002:0000aa13       $N00014                    10034a13     ConEmu.exp
 0002:0000aa26       $N00015                    10034a26     ConEmu.exp
 0002:0000aa39       $N00016                    10034a39     ConEmu.exp
 0002:0000aa4b       $N00017                    10034a4b     ConEmu.exp
 0002:0000aa5a       $N00018                    10034a5a     ConEmu.exp
 0002:0000aa66       $N00019                    10034a66     ConEmu.exp
 0002:0000aa6f       $N00020                    10034a6f     ConEmu.exp
 0002:0000aa7e       $N00021                    10034a7e     ConEmu.exp
 0002:0000aa90       $N00022                    10034a90     ConEmu.exp
 0002:0000aa9c       $N00023                    10034a9c     ConEmu.exp
 0002:0000aab0       $N00024                    10034ab0     ConEmu.exp
 0002:0000aac4       $N00025                    10034ac4     ConEmu.exp
 0002:0000aad9       $N00026                    10034ad9     ConEmu.exp
 0002:0000aaed       $N00027                    10034aed     ConEmu.exp
 0002:0000aeee       .idata$6                   10034eee     version:VERSION.dll
 0002:0000b448       .idata$6                   10035448     kernel32:KERNEL32.dll
 0002:0000b554       .idata$6                   10035554     user32:USER32.dll
 0002:0000b5f4       .idata$6                   100355f4     gdi32:GDI32.dll
 0002:0000b630       .idata$6                   10035630     advapi32:ADVAPI32.dll
 0003:00000100       ?rc@?CE@??Open@CPluginW2800@@UAEPAXPBX@Z@4UFarMacroCall@@A 10036100     ConEmuPlugin2800.obj
 0003:00000118       ?val@?CE@??Open@CPluginW2800@@UAEPAXPBX@Z@4UFarMacroValue@@A 10036118     ConEmuPlugin2800.obj
 0003:00000250       ?__vcrt_flsindex@@3KA      10036250     libvcruntime:per_thread_data.obj
 0003:00000274       _errno_no_memory           10036274     libucrt:errno.obj
 0003:00000278       _doserrno_no_memory        10036278     libucrt:errno.obj
 0003:0000027c       ___acrt_flsindex           1003627c     libucrt:per_thread_data.obj
 0003:000003f0       ___rgctypeflag             100363f0     libucrt:mbctype.obj
 0003:000003f8       ___rgcode_page_info        100363f8     libucrt:mbctype.obj
 0003:00000b38       ?store@?M@??GetPanelInfo@CPluginW1900@@UAE_NKPAUCEPanelInfo@@@Z@4UPanelInfo@@A 10036b38     ConEmuPlugin1900.obj
 0003:00000b88       ?szMenu@?1??GetPluginInfoPtr@CPluginW1900@@UAEXPAX@Z@4PAPA_WA 10036b88     ConEmuPlugin1900.obj
 0003:00000b90       ?szMenu1@?1??GetPluginInfoPtr@CPluginW1900@@UAEXPAX@Z@4PA_WA 10036b90     ConEmuPlugin1900.obj
 0003:00000d90       ?WLastActive@?1??UpdateConEmuTabsApi@CPluginW1900@@UAE_NH@Z@4UWindowInfo@@A 10036d90     ConEmuPlugin1900.obj
 0003:00000dc0       ?pwList@@3PAV?$MArray@UWindowInfo@@@@A 10036dc0     ConEmuPlugin2800.obj
 0003:00000dc8       ?store@?M@??GetPanelInfo@CPluginW2800@@UAE_NKPAUCEPanelInfo@@@Z@4UPanelInfo@@A 10036dc8     ConEmuPlugin2800.obj
 0003:00000e18       ?szMenu@?1??GetPluginInfoPtr@CPluginW2800@@UAEXPAX@Z@4PAPA_WA 10036e18     ConEmuPlugin2800.obj
 0003:00000e20       ?szMenu1@?1??GetPluginInfoPtr@CPluginW2800@@UAEXPAX@Z@4PA_WA 10036e20     ConEmuPlugin2800.obj
 0003:00001020       ?WLastActive@?1??UpdateConEmuTabsApi@CPluginW2800@@UAE_NH@Z@4UWindowInfo@@A 10037020     ConEmuPlugin2800.obj
 0003:00001050       ?ghSyncDlg@@3PAXA          10037050     ConEmuPlugin995.obj
 0003:00001058       ?store@?M@??GetPanelInfo@CPluginW995@@UAE_NKPAUCEPanelInfo@@@Z@4UPanelInfo@@A 10037058     ConEmuPlugin995.obj
 0003:0000109c       ?szMenu@?1??GetPluginInfoPtr@CPluginW995@@UAEXPAX@Z@4PAPA_WA 1003709c     ConEmuPlugin995.obj
 0003:000010a0       ?szMenu1@?1??GetPluginInfoPtr@CPluginW995@@UAEXPAX@Z@4PA_WA 100370a0     ConEmuPlugin995.obj
 0003:000012a8       ?store@?M@??GetPanelInfo@CPluginAnsi@@UAE_NKPAUCEPanelInfo@@@Z@4UPanelInfo@@A 100372a8     ConEmuPluginA.obj
 0003:00001498       ?szMenu@?1??GetPluginInfoPtr@CPluginAnsi@@UAEXPAX@Z@4PAPADA 10037498     ConEmuPluginA.obj
 0003:000014a0       ?szMenu1@?1??GetPluginInfoPtr@CPluginAnsi@@UAEXPAX@Z@4PADA 100374a0     ConEmuPluginA.obj
 0003:0000277c       ?gbTryOpenMapHeader@@3HA   1003877c     ConEmuPluginBase.obj
 0003:00002780       ?gbStartupHooksAfterMap@@3HA 10038780     ConEmuPluginBase.obj
 0003:00002784       ?siEnabled@?1??CheckBufferEnabled@CPluginBase@@QAE_NXZ@4HA 10038784     ConEmuPluginBase.obj
 0003:00002788       ?dwLastTickCount@?7??CheckResources@CPluginBase@@QAEX_N@Z@4KA 10038788     ConEmuPluginBase.obj
 0003:0000278c       ?$TSS0@?7??CheckResources@CPluginBase@@QAEX_N@Z@4HA 1003878c     ConEmuPluginBase.obj
 0003:00002790       ?dwLastTickCount@?9??OnConsolePeekReadInput@CPluginBase@@SAX_N@Z@4KA 10038790     ConEmuPluginBase.obj
 0003:000029f0       ?szFile@?1??ModuleName@@YAPB_WPB_W@Z@4PA_WA 100389f0     common-kernel32:ConEmuCheck.obj
 0003:00002a34       ?gh_UnknownTerminatedThread@@3PAXA 10038a34     common-kernel32:WThreads.obj
 0003:00002a38       ?g_Threads@@3PAUConEmuThreadInfo@@A 10038a38     common-kernel32:WThreads.obj
 0003:0000a23c       ?ibIsWin6@?1??IsWin6@@YA_NXZ@4HA 1004023c     common-kernel32:WObjects.obj
 0003:0000a240       ?is64bitOs@?1??IsWindows64@@YA_NXZ@4_NA 10040240     common-kernel32:WObjects.obj
 0003:0000a241       ?isOsChecked@?1??IsWindows64@@YA_NXZ@4_NA 10040241     common-kernel32:WObjects.obj
 0003:0000a248       ?szNil@?1??GetCommand@CESERVER_REQ_NEWCMD@@QAEPA_WXZ@4PA_WA 10040248     common-kernel32:Common.obj
 0003:0000a254       ?TerminalMode@?1??isTerminalMode@@YA_NXZ@4_NA 10040254     common-kernel32:MProcess.obj
 0003:0000a255       ?TerminalChecked@?1??isTerminalMode@@YA_NXZ@4_NA 10040255     common-kernel32:MProcess.obj
 0003:0000a256       ?bSysInfoRetrieved@?1??IsModuleValid@@YA_NPAUHINSTANCE__@@H@Z@4_NA 10040256     common-kernel32:WModuleCheck.obj
 0003:0000a258       ?si@?1??IsModuleValid@@YA_NPAUHINSTANCE__@@H@Z@4U_SYSTEM_INFO@@A 10040258     common-kernel32:WModuleCheck.obj
 0003:0000a288       ?_Tss_mutex@@3U_RTL_CRITICAL_SECTION@@A 10040288     LIBCMT:thread_safe_statics.obj
 0003:0000a2a0       ?_Tss_cv@@3U_RTL_CONDITION_VARIABLE@@A 100402a0     LIBCMT:thread_safe_statics.obj
 0003:0000a2a4       ?_Tss_event@@3PAXA         100402a4     LIBCMT:thread_safe_statics.obj
 0003:0000a2a8       ?encoded_sleep_condition_variable_cs@@3P6GHPAU_RTL_CONDITION_VARIABLE@@PAU_RTL_CRITICAL_SECTION@@K@ZA 100402a8     LIBCMT:thread_safe_statics.obj
 0003:0000a2ac       ?encoded_wake_all_condition_variable@@3P6GXPAU_RTL_CONDITION_VARIABLE@@@ZA 100402ac     LIBCMT:thread_safe_statics.obj
 0003:0000a2b0       ?__proc_attached@@3HA      100402b0     LIBCMT:dll_dllmain.obj
 0003:0000a2bc       ?module_local_atexit_table@@3U_onexit_table_t@@A 100402bc     LIBCMT:utility.obj
 0003:0000a2c8       ?module_local_at_quick_exit_table@@3U_onexit_table_t@@A 100402c8     LIBCMT:utility.obj
 0003:0000a2d4       ?module_local_atexit_table_initialized@@3_NA 100402d4     LIBCMT:utility.obj
 0003:0000a2d5       ?is_initialized_as_dll@@3_NA 100402d5     LIBCMT:utility.obj
 0003:0000a2d8       _GS_ExceptionRecord        100402d8     LIBCMT:gs_report.obj
 0003:0000a328       _GS_ContextRecord          10040328     LIBCMT:gs_report.obj
 0003:0000a614       ?module_handles@@3PAPAUHINSTANCE__@@A 10040614     libvcruntime:winapi_downlevel.obj
 0003:0000a620       ?encoded_function_pointers@@3PAPAXA 10040620     libvcruntime:winapi_downlevel.obj
 0003:0000a634       ?__vcrt_startup_thread_ptd@@3U__vcrt_ptd@@A 10040634     libvcruntime:per_thread_data.obj
 0003:0000a660       ___vcrt_lock_table         10040660     libvcruntime:locks.obj
 0003:0000a678       ___vcrt_locks_initialized  10040678     libvcruntime:locks.obj
 0003:0000a6a4       ?heap@@3V_HeapManager@@A   100406a4     libvcruntime:undname.obj
 0003:0000a6b8       _c_termination_complete    100406b8     libucrt:exit.obj
 0003:0000a6bc       _thread_local_exit_callback_func 100406bc     libucrt:exit.obj
 0003:0000a6c0       ?c_exit_complete@?5??common_exit@@YAXHW4_crt_exit_cleanup_mode@@W4_crt_exit_return_mode@@@Z@4_NA 100406c0     libucrt:exit.obj
 0003:0000a6c8       ?program_name@?5???$common_configure_argv@D@@YAHW4_crt_argv_mode@@@Z@4PADA 100406c8     libucrt:argv_parsing.obj
 0003:0000a7f8       ___acrt_invalid_parameter_handler 100407f8     libucrt:invalid_parameter.obj
 0003:0000a804       _enable_percent_n          10040804     libucrt:printf_count_output.obj
 0003:0000aa20       ___acrt_lock_table         10040a20     libucrt:locks.obj
 0003:0000ab58       ___acrt_locks_initialized  10040b58     libucrt:locks.obj
 0003:0000ab60       _module_handles            10040b60     libucrt:winapi_thunks.obj
 0003:0000abb0       _encoded_function_pointers 10040bb0     libucrt:winapi_thunks.obj
 0003:0000ac30       ?state_cache@?1??__acrt_is_packaged_app@@9@4JA 10040c30     libucrt:winapi_thunks.obj
 0003:0000ac4c       _fSystemSet                10040c4c     libucrt:mbctype.obj
 0003:0000ac50       ?initialized@?1??__acrt_initialize_multibyte@@9@4_NA 10040c50     libucrt:mbctype.obj
 0003:0000ac70       ___acrt_new_handler        10040c70     libucrt:new_handler.obj
 0003:0000ac74       _ctrlc_action              10040c74     libucrt:signal.obj
 0003:0000ac78       _ctrlbreak_action          10040c78     libucrt:signal.obj
 0003:0000ac7c       _abort_action              10040c7c     libucrt:signal.obj
 0003:0000ac80       _term_action               10040c80     libucrt:signal.obj
 0003:0000ac84       _user_matherr              10040c84     libucrt:matherr.obj
 0003:0000ac88       ___acrt_global_new_mode    10040c88     libucrt:new_mode.obj
 0003:0000ac94       ___acrt_app_type           10040c94     libucrt:report_runtime_error.obj
 0003:0000ac9c       __pmatherr_set             10040c9c     libucrt:libm_error.obj
 0003:0000acf4       ?gbPauseConsoleWasRequested@@3_NA 10040cf4     common-kernel32:WConsole.obj
 0003:0000acf8       ?GetCurrentConsoleFontEx@?1??apiGetCurrentConsoleFontEx@@YAHPAXHPAUMY_CONSOLE_FONT_INFOEX@@@Z@4P6GH0H1@ZA 10040cf8     common-kernel32:WConsole.obj
 0003:0000acfc       ?bFuncChecked@?1??apiGetCurrentConsoleFontEx@@YAHPAXHPAUMY_CONSOLE_FONT_INFOEX@@@Z@4_NA 10040cfc     common-kernel32:WConsole.obj
 0003:0000ad00       ?SetCurrentConsoleFontEx@?1??apiSetCurrentConsoleFontEx@@YAHPAXHPAUMY_CONSOLE_FONT_INFOEX@@@Z@4P6GH0H1@ZA 10040d00     common-kernel32:WConsole.obj
 0003:0000ad04       ?bFuncChecked@?1??apiSetCurrentConsoleFontEx@@YAHPAXHPAUMY_CONSOLE_FONT_INFOEX@@@Z@4_NA 10040d04     common-kernel32:WConsole.obj
 0004:000000a0       $R000000                   100410a0     ConEmu.res
 0004:000003a8       $R000308                   100413a8     ConEmu.res
